Certificate:
    Data:
        Version: 3 (0x2)
        Serial Number:
            10:4e:ea:da:20:77:35:8c:02:3e:3a:25:1c:63:82:f3:a0:e6:82:cc
        Signature Algorithm: ecdsa-with-SHA256
        Issuer: C=FI, L=Helsinki, O=w1.fi, CN=Suite B 128-bit Root CA
        Validity
            Not Before: Jan 29 10:29:55 2026 GMT
            Not After : Jan 27 10:29:55 2036 GMT
        Subject: C=FI, O=w1.fi, CN=server.w1.fi
        Subject Public Key Info:
            Public Key Algorithm: id-ecPublicKey
                Public-Key: (256 bit)
                pub:
                    04:a1:5f:89:d4:59:1a:4d:20:f0:36:01:37:90:c2:
                    da:94:9c:19:f9:b3:13:31:33:d3:05:68:2f:62:2f:
                    0b:e7:10:60:86:56:e3:fe:57:ff:0e:d3:47:21:be:
                    7a:a5:4d:9c:06:64:73:91:e5:a1:09:56:9d:8f:3d:
                    f7:3f:1f:6d:31
                ASN1 OID: prime256v1
                NIST CURVE: P-256
        X509v3 extensions:
            X509v3 Basic Constraints: critical
                CA:FALSE
            X509v3 Subject Key Identifier: 
                A5:C6:6F:16:2B:2A:AC:05:E2:2A:AB:F5:49:B2:ED:0E:68:4F:B3:82
            X509v3 Authority Key Identifier: 
                D0:1E:17:71:C9:18:FD:07:BD:1E:18:C7:A2:EC:3F:E2:36:4B:8C:4B
            X509v3 Subject Alternative Name: critical
                DNS:server.w1.fi
            X509v3 Extended Key Usage: critical
                TLS Web Server Authentication
            X509v3 Key Usage: 
                Digital Signature, Key Encipherment
    Signature Algorithm: ecdsa-with-SHA256
    Signature Value:
        30:46:02:21:00:96:7d:4b:b7:65:ad:d3:3e:6d:c0:80:4c:74:
        cd:3a:20:ab:e1:cf:5a:08:eb:0d:8b:46:34:a7:42:87:78:76:
        69:02:21:00:da:7c:fd:c2:6b:2c:db:a8:d0:c9:66:21:94:de:
        e2:9f:fc:c4:c8:f8:65:16:0a:aa:fa:19:db:c7:56:0a:40:58
-----BEGIN CERTIFICATE-----
MIICHDCCAcGgAwIBAgIUEE7q2iB3NYwCPjolHGOC86DmgswwCgYIKoZIzj0EAwIw
UjELMAkGA1UEBhMCRkkxETAPBgNVBAcMCEhlbHNpbmtpMQ4wDAYDVQQKDAV3MS5m
aTEgMB4GA1UEAwwXU3VpdGUgQiAxMjgtYml0IFJvb3QgQ0EwHhcNMjYwMTI5MTAy
OTU1WhcNMzYwMTI3MTAyOTU1WjA0MQswCQYDVQQGEwJGSTEOMAwGA1UECgwFdzEu
ZmkxFTATBgNVBAMMDHNlcnZlci53MS5maTBZMBMGByqGSM49AgEGCCqGSM49AwEH
A0IABKFfidRZGk0g8DYBN5DC2pScGfmzEzEz0wVoL2IvC+cQYIZW4/5X/w7TRyG+
eqVNnAZkc5HloQlWnY899z8fbTGjgZIwgY8wDAYDVR0TAQH/BAIwADAdBgNVHQ4E
FgQUpcZvFisqrAXiKqv1SbLtDmhPs4IwHwYDVR0jBBgwFoAU0B4XcckY/Qe9HhjH
ouw/4jZLjEswGgYDVR0RAQH/BBAwDoIMc2VydmVyLncxLmZpMBYGA1UdJQEB/wQM
MAoGCCsGAQUFBwMBMAsGA1UdDwQEAwIFoDAKBggqhkjOPQQDAgNJADBGAiEAln1L
t2Wt0z5twIBMdM06IKvhz1oI6w2LRjSnQod4dmkCIQDafP3CayzbqNDJZiGU3uKf
/MTI+GUWCqr6GdvHVgpAWA==
-----END CERTIFICATE-----
