Certificate:
    Data:
        Version: 3 (0x2)
        Serial Number:
            10:4e:ea:da:20:77:35:8c:02:3e:3a:25:1c:63:82:f3:a0:e6:82:cd
        Signature Algorithm: ecdsa-with-SHA256
        Issuer: C=FI, L=Helsinki, O=w1.fi, CN=Suite B 128-bit Root CA
        Validity
            Not Before: Jan 29 10:29:55 2026 GMT
            Not After : Jan 27 10:29:55 2036 GMT
        Subject: C=FI, O=w1.fi, CN=user
        Subject Public Key Info:
            Public Key Algorithm: id-ecPublicKey
                Public-Key: (256 bit)
                pub:
                    04:22:f3:86:11:8a:77:2f:52:79:e9:7e:e4:b7:55:
                    3e:0f:ba:ef:b4:1b:65:2d:73:e1:86:81:bd:24:82:
                    3b:e5:fa:83:ef:eb:75:db:47:db:9c:9a:39:2c:cf:
                    89:f3:fa:1f:ac:8b:5c:04:12:70:7d:d3:98:fc:bb:
                    47:85:6a:bc:46
                ASN1 OID: prime256v1
                NIST CURVE: P-256
        X509v3 extensions:
            X509v3 Basic Constraints: 
                CA:FALSE
            X509v3 Subject Key Identifier: 
                FB:9C:05:57:0E:B6:DF:4F:BA:1F:BD:DC:A2:7F:5D:F1:F3:42:F8:01
            X509v3 Authority Key Identifier: 
                D0:1E:17:71:C9:18:FD:07:BD:1E:18:C7:A2:EC:3F:E2:36:4B:8C:4B
            X509v3 Subject Alternative Name: 
                email:user@w1.fi
            X509v3 Extended Key Usage: 
                TLS Web Client Authentication
            X509v3 Key Usage: 
                Digital Signature, Key Encipherment
    Signature Algorithm: ecdsa-with-SHA256
    Signature Value:
        30:46:02:21:00:8a:96:6b:29:de:a2:5e:6e:85:0e:d3:97:78:
        f8:e2:01:51:4f:2f:9e:01:d5:08:6d:e3:e8:3f:91:22:4b:d3:
        fa:02:21:00:d3:07:f8:5f:82:26:00:de:93:f0:af:ae:c8:d7:
        97:b9:19:e6:66:d3:02:90:76:78:0a:56:d9:c2:e2:72:ef:5f
-----BEGIN CERTIFICATE-----
MIICCTCCAa6gAwIBAgIUEE7q2iB3NYwCPjolHGOC86Dmgs0wCgYIKoZIzj0EAwIw
UjELMAkGA1UEBhMCRkkxETAPBgNVBAcMCEhlbHNpbmtpMQ4wDAYDVQQKDAV3MS5m
aTEgMB4GA1UEAwwXU3VpdGUgQiAxMjgtYml0IFJvb3QgQ0EwHhcNMjYwMTI5MTAy
OTU1WhcNMzYwMTI3MTAyOTU1WjAsMQswCQYDVQQGEwJGSTEOMAwGA1UECgwFdzEu
ZmkxDTALBgNVBAMMBHVzZXIwWTATBgcqhkjOPQIBBggqhkjOPQMBBwNCAAQi84YR
incvUnnpfuS3VT4Puu+0G2Utc+GGgb0kgjvl+oPv63XbR9ucmjksz4nz+h+si1wE
EnB905j8u0eFarxGo4GHMIGEMAkGA1UdEwQCMAAwHQYDVR0OBBYEFPucBVcOtt9P
uh+93KJ/XfHzQvgBMB8GA1UdIwQYMBaAFNAeF3HJGP0HvR4Yx6LsP+I2S4xLMBUG
A1UdEQQOMAyBCnVzZXJAdzEuZmkwEwYDVR0lBAwwCgYIKwYBBQUHAwIwCwYDVR0P
BAQDAgWgMAoGCCqGSM49BAMCA0kAMEYCIQCKlmsp3qJeboUO05d4+OIBUU8vngHV
CG3j6D+RIkvT+gIhANMH+F+CJgDek/CvrsjXl7kZ5mbTApB2eApW2cLicu9f
-----END CERTIFICATE-----
