Certificate:
    Data:
        Version: 3 (0x2)
        Serial Number:
            10:4e:ea:da:20:77:35:8c:02:3e:3a:25:1c:63:82:f3:a0:e6:82:d0
        Signature Algorithm: ecdsa-with-SHA256
        Issuer: C=FI, L=Helsinki, O=w1.fi, CN=Suite B 192-bit Root CA
        Validity
            Not Before: Jan 29 10:29:58 2026 GMT
            Not After : Jan 27 10:29:58 2036 GMT
        Subject: C=FI, O=w1.fi, CN=user-p256
        Subject Public Key Info:
            Public Key Algorithm: id-ecPublicKey
                Public-Key: (256 bit)
                pub:
                    04:13:8e:5f:3e:5e:bf:e0:3e:a0:50:9e:4d:7a:fd:
                    d2:e9:eb:8b:3e:28:cb:19:78:05:40:ed:4e:7d:95:
                    36:ed:85:a0:06:44:f2:f9:76:27:0a:7f:42:d1:fd:
                    94:7a:e2:5d:b1:62:1a:dd:07:3f:72:fb:8e:e3:51:
                    30:26:88:fe:91
                ASN1 OID: prime256v1
                NIST CURVE: P-256
        X509v3 extensions:
            X509v3 Basic Constraints: 
                CA:FALSE
            X509v3 Subject Key Identifier: 
                5A:58:BD:45:8F:4C:D1:B2:DD:AC:7D:3A:7B:E8:26:6F:6B:E5:DE:B9
            X509v3 Authority Key Identifier: 
                27:6F:C4:A6:2C:C0:30:4F:51:5D:51:43:4C:AF:F8:2D:93:C8:49:37
            X509v3 Subject Alternative Name: 
                email:user-p256@w1.fi
            X509v3 Extended Key Usage: 
                TLS Web Client Authentication
            X509v3 Key Usage: 
                Digital Signature, Key Encipherment
    Signature Algorithm: ecdsa-with-SHA256
    Signature Value:
        30:65:02:30:7e:9b:76:41:fe:a8:ca:df:34:25:e5:d3:a0:6a:
        43:46:d7:c4:e6:53:3c:28:6c:e2:50:e1:dc:06:45:32:4f:2c:
        42:61:87:41:ed:5a:2a:45:50:cd:b9:5d:98:48:32:85:02:31:
        00:9d:0e:4f:5f:46:9a:5f:28:aa:e7:da:f7:36:98:3e:57:93:
        18:c4:dc:fa:50:81:40:85:dd:d3:da:e7:04:0d:ba:75:d1:9b:
        62:5b:e8:cd:b0:b0:89:32:0b:a3:22:17:df
-----BEGIN CERTIFICATE-----
MIICMjCCAbigAwIBAgIUEE7q2iB3NYwCPjolHGOC86DmgtAwCgYIKoZIzj0EAwIw
UjELMAkGA1UEBhMCRkkxETAPBgNVBAcMCEhlbHNpbmtpMQ4wDAYDVQQKDAV3MS5m
aTEgMB4GA1UEAwwXU3VpdGUgQiAxOTItYml0IFJvb3QgQ0EwHhcNMjYwMTI5MTAy
OTU4WhcNMzYwMTI3MTAyOTU4WjAxMQswCQYDVQQGEwJGSTEOMAwGA1UECgwFdzEu
ZmkxEjAQBgNVBAMMCXVzZXItcDI1NjBZMBMGByqGSM49AgEGCCqGSM49AwEHA0IA
BBOOXz5ev+A+oFCeTXr90unriz4oyxl4BUDtTn2VNu2FoAZE8vl2Jwp/QtH9lHri
XbFiGt0HP3L7juNRMCaI/pGjgYwwgYkwCQYDVR0TBAIwADAdBgNVHQ4EFgQUWli9
RY9M0bLdrH06e+gmb2vl3rkwHwYDVR0jBBgwFoAUJ2/EpizAME9RXVFDTK/4LZPI
STcwGgYDVR0RBBMwEYEPdXNlci1wMjU2QHcxLmZpMBMGA1UdJQQMMAoGCCsGAQUF
BwMCMAsGA1UdDwQEAwIFoDAKBggqhkjOPQQDAgNoADBlAjB+m3ZB/qjK3zQl5dOg
akNG18TmUzwobOJQ4dwGRTJPLEJhh0HtWipFUM25XZhIMoUCMQCdDk9fRppfKKrn
2vc2mD5XkxjE3PpQgUCF3dPa5wQNunXRm2Jb6M2wsIkyC6MiF98=
-----END CERTIFICATE-----
