Certificate:
    Data:
        Version: 3 (0x2)
        Serial Number:
            10:4e:ea:da:20:77:35:8c:02:3e:3a:25:1c:63:82:f3:a0:e6:82:cf
        Signature Algorithm: ecdsa-with-SHA384
        Issuer: C=FI, L=Helsinki, O=w1.fi, CN=Suite B 192-bit Root CA
        Validity
            Not Before: Jan 29 10:29:58 2026 GMT
            Not After : Jan 27 10:29:58 2036 GMT
        Subject: C=FI, O=w1.fi, CN=user
        Subject Public Key Info:
            Public Key Algorithm: id-ecPublicKey
                Public-Key: (384 bit)
                pub:
                    04:89:43:8b:70:2a:c8:a2:95:90:6b:62:be:0f:7c:
                    15:03:c0:ed:49:d7:40:25:b4:e7:75:5f:33:9a:e4:
                    48:e9:b0:2d:8e:f3:41:b2:1d:f5:68:6e:b3:0c:2d:
                    55:e8:21:64:e0:4f:c3:b8:ef:ed:56:64:34:d8:b0:
                    96:79:83:2c:ba:57:f9:5d:7b:e7:ce:11:9d:c5:0b:
                    f6:e5:73:69:5e:2f:e1:24:ec:90:8e:b7:b4:e0:72:
                    7a:0a:97:be:77:1a:10
                ASN1 OID: secp384r1
                NIST CURVE: P-384
        X509v3 extensions:
            X509v3 Basic Constraints: 
                CA:FALSE
            X509v3 Subject Key Identifier: 
                A3:08:74:1E:FF:CB:89:1A:F2:00:A8:44:B3:F3:61:D2:E9:07:FE:E0
            X509v3 Authority Key Identifier: 
                27:6F:C4:A6:2C:C0:30:4F:51:5D:51:43:4C:AF:F8:2D:93:C8:49:37
            X509v3 Subject Alternative Name: 
                email:user@w1.fi
            X509v3 Extended Key Usage: 
                TLS Web Client Authentication
            X509v3 Key Usage: 
                Digital Signature, Key Encipherment
    Signature Algorithm: ecdsa-with-SHA384
    Signature Value:
        30:65:02:31:00:ca:14:1a:c7:7c:1e:eb:ce:83:63:d4:d7:3c:
        6b:de:2f:98:2c:c4:af:b4:15:2b:9d:b1:23:a5:3d:bd:91:7f:
        40:43:59:20:37:2f:a9:d6:06:a9:11:58:2f:ce:58:26:4b:02:
        30:7e:bc:a1:ca:a6:10:ee:f7:17:90:f5:d1:59:fd:3d:5f:76:
        e7:04:09:1d:ad:52:c6:dd:51:a0:1f:4a:e0:c8:72:78:f1:02:
        8f:a3:96:f7:9f:6e:8c:1e:4d:1b:3e:72:62
-----BEGIN CERTIFICATE-----
MIICRTCCAcugAwIBAgIUEE7q2iB3NYwCPjolHGOC86Dmgs8wCgYIKoZIzj0EAwMw
UjELMAkGA1UEBhMCRkkxETAPBgNVBAcMCEhlbHNpbmtpMQ4wDAYDVQQKDAV3MS5m
aTEgMB4GA1UEAwwXU3VpdGUgQiAxOTItYml0IFJvb3QgQ0EwHhcNMjYwMTI5MTAy
OTU4WhcNMzYwMTI3MTAyOTU4WjAsMQswCQYDVQQGEwJGSTEOMAwGA1UECgwFdzEu
ZmkxDTALBgNVBAMMBHVzZXIwdjAQBgcqhkjOPQIBBgUrgQQAIgNiAASJQ4twKsii
lZBrYr4PfBUDwO1J10AltOd1XzOa5EjpsC2O80GyHfVobrMMLVXoIWTgT8O47+1W
ZDTYsJZ5gyy6V/lde+fOEZ3FC/blc2leL+Ek7JCOt7TgcnoKl753GhCjgYcwgYQw
CQYDVR0TBAIwADAdBgNVHQ4EFgQUowh0Hv/LiRryAKhEs/Nh0ukH/uAwHwYDVR0j
BBgwFoAUJ2/EpizAME9RXVFDTK/4LZPISTcwFQYDVR0RBA4wDIEKdXNlckB3MS5m
aTATBgNVHSUEDDAKBggrBgEFBQcDAjALBgNVHQ8EBAMCBaAwCgYIKoZIzj0EAwMD
aAAwZQIxAMoUGsd8HuvOg2PU1zxr3i+YLMSvtBUrnbEjpT29kX9AQ1kgNy+p1gap
EVgvzlgmSwIwfryhyqYQ7vcXkPXRWf09X3bnBAkdrVLG3VGgH0rgyHJ48QKPo5b3
n26MHk0bPnJi
-----END CERTIFICATE-----
