Certificate:
    Data:
        Version: 3 (0x2)
        Serial Number:
            10:4e:ea:da:20:77:35:8c:02:3e:3a:25:1c:63:82:f3:a0:e6:82:ce
        Signature Algorithm: ecdsa-with-SHA384
        Issuer: C=FI, L=Helsinki, O=w1.fi, CN=Suite B 192-bit Root CA
        Validity
            Not Before: Jan 29 10:29:58 2026 GMT
            Not After : Jan 27 10:29:58 2036 GMT
        Subject: C=FI, O=w1.fi, CN=server.w1.fi
        Subject Public Key Info:
            Public Key Algorithm: id-ecPublicKey
                Public-Key: (384 bit)
                pub:
                    04:11:90:2f:46:44:30:d0:ee:df:6f:bd:b7:70:fd:
                    b7:b3:5f:ec:99:5f:4a:2b:1d:19:5b:20:53:9c:47:
                    a3:ef:6a:ed:19:8b:f2:5c:cb:47:7d:9d:40:f7:36:
                    5d:de:18:3b:62:7d:10:5f:40:87:8f:61:6e:51:ff:
                    de:47:61:11:25:11:03:49:a7:40:7e:74:4a:a1:a1:
                    fa:83:52:ee:af:a4:4f:92:d0:1d:fc:37:23:67:fd:
                    13:74:2f:f1:92:84:de
                ASN1 OID: secp384r1
                NIST CURVE: P-384
        X509v3 extensions:
            X509v3 Basic Constraints: critical
                CA:FALSE
            X509v3 Subject Key Identifier: 
                12:D2:8C:87:69:A0:BC:8A:77:94:D6:BF:A0:32:71:90:4A:54:2F:BC
            X509v3 Authority Key Identifier: 
                27:6F:C4:A6:2C:C0:30:4F:51:5D:51:43:4C:AF:F8:2D:93:C8:49:37
            X509v3 Subject Alternative Name: critical
                DNS:server.w1.fi
            X509v3 Extended Key Usage: critical
                TLS Web Server Authentication
            X509v3 Key Usage: 
                Digital Signature, Key Encipherment
    Signature Algorithm: ecdsa-with-SHA384
    Signature Value:
        30:65:02:31:00:e9:a0:41:2b:f5:07:5b:96:13:03:ec:2f:ed:
        cd:1d:74:cb:17:52:13:1c:0b:fc:6a:49:e8:55:fe:14:b7:14:
        80:bf:24:53:af:76:70:e6:27:86:45:91:c2:0f:5c:22:55:02:
        30:40:38:1a:f8:ef:fb:9a:4d:41:2f:7c:6a:53:f3:50:b4:0d:
        29:07:02:2a:d3:d0:70:61:ce:c4:b9:f7:9f:22:c0:5a:3e:67:
        30:0b:8a:46:85:1e:a8:e9:54:70:4e:e7:17
-----BEGIN CERTIFICATE-----
MIICWDCCAd6gAwIBAgIUEE7q2iB3NYwCPjolHGOC86Dmgs4wCgYIKoZIzj0EAwMw
UjELMAkGA1UEBhMCRkkxETAPBgNVBAcMCEhlbHNpbmtpMQ4wDAYDVQQKDAV3MS5m
aTEgMB4GA1UEAwwXU3VpdGUgQiAxOTItYml0IFJvb3QgQ0EwHhcNMjYwMTI5MTAy
OTU4WhcNMzYwMTI3MTAyOTU4WjA0MQswCQYDVQQGEwJGSTEOMAwGA1UECgwFdzEu
ZmkxFTATBgNVBAMMDHNlcnZlci53MS5maTB2MBAGByqGSM49AgEGBSuBBAAiA2IA
BBGQL0ZEMNDu32+9t3D9t7Nf7JlfSisdGVsgU5xHo+9q7RmL8lzLR32dQPc2Xd4Y
O2J9EF9Ah49hblH/3kdhESURA0mnQH50SqGh+oNS7q+kT5LQHfw3I2f9E3Qv8ZKE
3qOBkjCBjzAMBgNVHRMBAf8EAjAAMB0GA1UdDgQWBBQS0oyHaaC8ineU1r+gMnGQ
SlQvvDAfBgNVHSMEGDAWgBQnb8SmLMAwT1FdUUNMr/gtk8hJNzAaBgNVHREBAf8E
EDAOggxzZXJ2ZXIudzEuZmkwFgYDVR0lAQH/BAwwCgYIKwYBBQUHAwEwCwYDVR0P
BAQDAgWgMAoGCCqGSM49BAMDA2gAMGUCMQDpoEEr9QdblhMD7C/tzR10yxdSExwL
/GpJ6FX+FLcUgL8kU692cOYnhkWRwg9cIlUCMEA4Gvjv+5pNQS98alPzULQNKQcC
KtPQcGHOxLn3nyLAWj5nMAuKRoUeqOlUcE7nFw==
-----END CERTIFICATE-----
