Certificate:
    Data:
        Version: 3 (0x2)
        Serial Number:
            d8:d3:e3:a6:cb:e3:cd:9a
        Signature Algorithm: sha256WithRSAEncryption
        Issuer: C=FI, L=Tuusula, O=w1.fi, CN=Root CA
        Validity
            Not Before: Apr 25 12:50:49 2025 GMT
            Not After : Apr 25 12:50:49 2026 GMT
        Subject: C=FI, O=w1.fi, CN=ocsp.w1.fi
        Subject Public Key Info:
            Public Key Algorithm: rsaEncryption
                Public-Key: (2048 bit)
                Modulus:
                    00:a7:22:85:5d:bb:3b:1c:02:9a:01:73:aa:88:63:
                    6e:a1:43:33:b5:fd:02:fe:1f:c8:23:04:8b:8c:51:
                    52:5b:e0:cc:62:60:2a:aa:ba:88:4f:41:39:6b:fb:
                    34:c0:a2:7a:77:2e:e1:56:9e:ef:ca:ae:67:d5:f9:
                    8b:5f:ab:ae:87:e1:b0:14:23:03:ad:69:4b:df:2b:
                    91:70:75:cd:bf:65:40:12:d0:eb:2f:89:f0:41:15:
                    1b:ed:4c:0d:3a:92:96:91:f8:cd:54:38:15:eb:6b:
                    45:9f:52:85:7e:4e:15:ab:4e:4b:eb:22:c2:5d:be:
                    ff:36:6f:42:27:d8:4b:c6:e1:be:f8:08:cf:ac:fd:
                    51:30:a2:e8:80:13:00:05:b6:05:55:42:0b:fa:1e:
                    40:84:50:09:8c:25:35:54:25:45:39:9f:4e:7c:0a:
                    d9:c4:4a:0c:16:4e:3e:68:7f:1b:ad:c9:53:08:5c:
                    b8:04:d4:d6:93:62:fd:af:f9:b4:1d:f4:96:3e:9b:
                    9d:14:6d:1c:6c:23:ae:3d:c7:b4:cf:31:90:20:6a:
                    80:99:62:7e:5c:e9:d5:d5:bd:59:4d:a3:d9:dc:e9:
                    fb:e8:7b:65:87:d5:f9:49:9e:be:0e:f3:a9:21:de:
                    94:e8:54:fc:80:cf:da:e3:8f:9a:c6:4c:76:18:0e:
                    fe:ab
                Exponent: 65537 (0x10001)
        X509v3 extensions:
            X509v3 Basic Constraints: 
                CA:FALSE
            X509v3 Key Usage: 
                Digital Signature, Non Repudiation, Key Encipherment
            X509v3 Extended Key Usage: 
                OCSP Signing
            X509v3 Subject Key Identifier: 
                2D:D5:2E:6F:1C:49:B1:7C:C9:A1:0C:66:32:35:AB:A8:96:F8:21:A2
            X509v3 Authority Key Identifier: 
                A4:FD:B9:39:1B:81:B3:AA:EB:88:1D:D4:81:A9:B5:11:70:CC:A7:E1
    Signature Algorithm: sha256WithRSAEncryption
    Signature Value:
        66:18:4d:b9:43:90:2e:92:21:ac:90:04:d9:74:ab:2e:1c:4a:
        5a:8b:db:e4:d1:7f:fc:51:1d:45:1f:b5:4d:8e:f9:46:19:ef:
        c7:66:1e:30:c6:58:94:85:fb:49:81:a4:a6:41:a9:bd:9d:c9:
        1b:59:e4:a7:0a:f4:e7:f2:2a:54:53:6a:a4:f6:6d:f8:75:2d:
        3e:b9:b4:ea:93:81:cc:c1:fe:1b:33:2e:0f:3d:dc:11:99:ec:
        87:25:ba:9c:b4:cf:6e:14:47:c7:05:08:87:ff:61:79:76:5a:
        8a:01:a6:1d:6e:2a:33:83:e7:7a:07:61:85:9f:34:fa:25:a6:
        d3:9a:91:68:9e:9e:77:1f:5e:6b:1e:04:d0:76:3b:ac:57:36:
        81:a4:3e:c5:da:de:ec:36:1f:0c:18:5d:51:28:06:c7:d8:be:
        25:32:67:0a:49:eb:b1:07:5a:c0:ed:a7:0b:f0:ba:4f:52:fa:
        e3:eb:27:1e:62:45:e5:9c:8f:78:2c:2c:44:9b:2a:be:ce:cf:
        20:a4:45:89:66:a6:7f:0a:13:3a:d9:75:51:b9:0f:13:71:c5:
        72:0b:37:c7:de:e7:7d:e1:53:e9:d3:02:41:99:87:17:a1:24:
        9f:a1:25:02:37:01:72:94:43:52:b9:10:d3:dc:78:b0:46:e6:
        fc:b5:77:ff
-----BEGIN CERTIFICATE-----
MIIDZTCCAk2gAwIBAgIJANjT46bL482aMA0GCSqGSIb3DQEBCwUAMEExCzAJBgNV
BAYTAkZJMRAwDgYDVQQHDAdUdXVzdWxhMQ4wDAYDVQQKDAV3MS5maTEQMA4GA1UE
AwwHUm9vdCBDQTAeFw0yNTA0MjUxMjUwNDlaFw0yNjA0MjUxMjUwNDlaMDIxCzAJ
BgNVBAYTAkZJMQ4wDAYDVQQKDAV3MS5maTETMBEGA1UEAwwKb2NzcC53MS5maTCC
ASIwDQYJKoZIhvcNAQEBBQADggEPADCCAQoCggEBAKcihV27OxwCmgFzqohjbqFD
M7X9Av4fyCMEi4xRUlvgzGJgKqq6iE9BOWv7NMCiencu4Vae78quZ9X5i1+rrofh
sBQjA61pS98rkXB1zb9lQBLQ6y+J8EEVG+1MDTqSlpH4zVQ4FetrRZ9ShX5OFatO
S+siwl2+/zZvQifYS8bhvvgIz6z9UTCi6IATAAW2BVVCC/oeQIRQCYwlNVQlRTmf
TnwK2cRKDBZOPmh/G63JUwhcuATU1pNi/a/5tB30lj6bnRRtHGwjrj3HtM8xkCBq
gJliflzp1dW9WU2j2dzp++h7ZYfV+Umevg7zqSHelOhU/IDP2uOPmsZMdhgO/qsC
AwEAAaNvMG0wCQYDVR0TBAIwADALBgNVHQ8EBAMCBeAwEwYDVR0lBAwwCgYIKwYB
BQUHAwkwHQYDVR0OBBYEFC3VLm8cSbF8yaEMZjI1q6iW+CGiMB8GA1UdIwQYMBaA
FKT9uTkbgbOq64gd1IGptRFwzKfhMA0GCSqGSIb3DQEBCwUAA4IBAQBmGE25Q5Au
kiGskATZdKsuHEpai9vk0X/8UR1FH7VNjvlGGe/HZh4wxliUhftJgaSmQam9nckb
WeSnCvTn8ipUU2qk9m34dS0+ubTqk4HMwf4bMy4PPdwRmeyHJbqctM9uFEfHBQiH
/2F5dlqKAaYdbiozg+d6B2GFnzT6JabTmpFonp53H15rHgTQdjusVzaBpD7F2t7s
Nh8MGF1RKAbH2L4lMmcKSeuxB1rA7acL8LpPUvrj6yceYkXlnI94LCxEmyq+zs8g
pEWJZqZ/ChM62XVRuQ8TccVyCzfH3ud94VPp0wJBmYcXoSSfoSUCNwFylENSuRDT
3HiwRub8tXf/
-----END CERTIFICATE-----
