Certificate:
    Data:
        Version: 3 (0x2)
        Serial Number:
            d8:d3:e3:a6:cb:e3:cd:93
        Signature Algorithm: sha256WithRSAEncryption
        Issuer: C=FI, L=Tuusula, O=w1.fi, CN=Root CA
        Validity
            Not Before: Jan  1 00:00:00 2020 GMT
            Not After : Jan  2 00:00:00 2020 GMT
        Subject: C=FI, O=w1.fi, CN=server4.w1.fi
        Subject Public Key Info:
            Public Key Algorithm: rsaEncryption
                Public-Key: (2048 bit)
                Modulus:
                    00:b0:77:f1:3e:66:e7:fc:0b:51:f9:d8:a3:ae:2f:
                    f6:4a:75:38:3e:d4:47:7b:d6:24:32:b4:c8:d9:e0:
                    d0:a5:12:f4:89:a7:89:01:d9:54:43:ce:81:4a:bd:
                    ed:16:f3:7c:c1:67:36:8b:73:4d:21:91:e7:4b:7e:
                    74:c5:3b:15:b8:c6:46:7e:a9:a2:91:c3:f5:90:b3:
                    cf:f9:0c:eb:ba:6f:ee:b9:ab:77:3d:03:9e:9d:77:
                    07:bf:97:6a:d4:4d:b6:da:fd:36:54:25:e3:09:26:
                    89:7f:a1:11:c1:f6:dc:be:5c:57:a8:e6:45:57:3d:
                    98:14:06:72:ac:e9:c8:81:06:38:9c:cf:cd:0a:0e:
                    78:4e:9e:7b:10:c2:61:a5:43:ef:34:16:df:3c:e0:
                    a3:44:77:48:cd:be:e4:79:cb:31:39:9f:53:dd:a3:
                    0e:76:5a:6c:24:5e:56:35:9b:a2:7d:b3:9e:42:f1:
                    61:9c:e8:9e:1c:b8:9a:10:1e:32:29:21:cb:30:16:
                    e0:03:11:f9:88:f2:8f:04:a5:e6:a7:9c:73:e1:93:
                    d8:51:2d:bb:45:83:8f:b6:93:41:39:41:84:5f:4b:
                    ad:00:25:91:3d:16:0a:eb:f0:b8:92:e0:5c:75:65:
                    85:17:d2:80:e6:5e:66:a2:a4:df:c7:08:76:33:49:
                    cf:1d
                Exponent: 65537 (0x10001)
        X509v3 extensions:
            X509v3 Basic Constraints: 
                CA:FALSE
            X509v3 Subject Key Identifier: 
                21:B0:31:C6:14:D4:BD:5C:DF:70:24:51:34:9E:93:F5:18:B3:1C:A1
            X509v3 Authority Key Identifier: 
                A4:FD:B9:39:1B:81:B3:AA:EB:88:1D:D4:81:A9:B5:11:70:CC:A7:E1
            Authority Information Access: 
                OCSP - URI:http://server.w1.fi:8888/
            X509v3 Extended Key Usage: 
                TLS Web Server Authentication
    Signature Algorithm: sha256WithRSAEncryption
    Signature Value:
        06:fb:16:76:01:ac:1e:39:9d:de:29:3a:64:8b:71:06:eb:4f:
        06:10:84:b2:c2:e5:7e:4e:c2:2a:ba:44:7b:0b:cd:8a:ee:bf:
        9c:bc:04:4c:13:f7:57:aa:dd:0b:a3:58:34:c5:7b:68:85:ee:
        df:2e:ec:59:8b:a3:6d:fc:8d:8a:2a:85:b2:cf:fb:64:e7:c8:
        5b:64:b1:66:3f:b5:a2:e9:08:51:61:29:c9:47:5c:74:0e:40:
        97:6e:a1:6a:56:db:e8:f6:04:dc:ad:a8:29:27:bf:ec:69:3c:
        fd:6b:10:ce:88:1b:7a:f3:cf:20:8e:00:12:1e:02:1b:90:99:
        b6:ad:6e:1f:0f:fc:f9:ea:07:3a:17:5b:28:2d:17:c6:82:b6:
        14:3e:58:f9:5a:0d:9b:ef:71:4c:29:f9:67:bd:aa:73:fd:bf:
        69:2e:65:10:1f:fe:9e:76:92:cc:1c:63:7d:c1:52:ae:e5:ff:
        84:51:bd:58:58:fc:bd:8c:33:c2:7a:13:21:56:98:fc:2d:c4:
        d9:ac:3a:55:0f:a1:c3:91:09:0e:02:fb:fc:1d:70:2a:7e:af:
        af:79:2d:2b:7d:68:5d:32:92:70:2d:ad:ba:af:26:20:d3:b8:
        66:32:e9:1b:f4:27:60:1a:99:3f:c4:b8:3b:e8:d4:23:6c:e2:
        2a:24:93:5a
-----BEGIN CERTIFICATE-----
MIIDlDCCAnygAwIBAgIJANjT46bL482TMA0GCSqGSIb3DQEBCwUAMEExCzAJBgNV
BAYTAkZJMRAwDgYDVQQHDAdUdXVzdWxhMQ4wDAYDVQQKDAV3MS5maTEQMA4GA1UE
AwwHUm9vdCBDQTAeFw0yMDAxMDEwMDAwMDBaFw0yMDAxMDIwMDAwMDBaMDUxCzAJ
BgNVBAYTAkZJMQ4wDAYDVQQKDAV3MS5maTEWMBQGA1UEAwwNc2VydmVyNC53MS5m
aTCCASIwDQYJKoZIhvcNAQEBBQADggEPADCCAQoCggEBALB38T5m5/wLUfnYo64v
9kp1OD7UR3vWJDK0yNng0KUS9ImniQHZVEPOgUq97RbzfMFnNotzTSGR50t+dMU7
FbjGRn6popHD9ZCzz/kM67pv7rmrdz0Dnp13B7+XatRNttr9NlQl4wkmiX+hEcH2
3L5cV6jmRVc9mBQGcqzpyIEGOJzPzQoOeE6eexDCYaVD7zQW3zzgo0R3SM2+5HnL
MTmfU92jDnZabCReVjWbon2znkLxYZzonhy4mhAeMikhyzAW4AMR+YjyjwSl5qec
c+GT2FEtu0WDj7aTQTlBhF9LrQAlkT0WCuvwuJLgXHVlhRfSgOZeZqKk38cIdjNJ
zx0CAwEAAaOBmjCBlzAJBgNVHRMEAjAAMB0GA1UdDgQWBBQhsDHGFNS9XN9wJFE0
npP1GLMcoTAfBgNVHSMEGDAWgBSk/bk5G4GzquuIHdSBqbURcMyn4TA1BggrBgEF
BQcBAQQpMCcwJQYIKwYBBQUHMAGGGWh0dHA6Ly9zZXJ2ZXIudzEuZmk6ODg4OC8w
EwYDVR0lBAwwCgYIKwYBBQUHAwEwDQYJKoZIhvcNAQELBQADggEBAAb7FnYBrB45
nd4pOmSLcQbrTwYQhLLC5X5Owiq6RHsLzYruv5y8BEwT91eq3QujWDTFe2iF7t8u
7FmLo238jYoqhbLP+2TnyFtksWY/taLpCFFhKclHXHQOQJduoWpW2+j2BNytqCkn
v+xpPP1rEM6IG3rzzyCOABIeAhuQmbatbh8P/PnqBzoXWygtF8aCthQ+WPlaDZvv
cUwp+We9qnP9v2kuZRAf/p52kswcY33BUq7l/4RRvVhY/L2MM8J6EyFWmPwtxNms
OlUPocORCQ4C+/wdcCp+r695LSt9aF0yknAtrbqvJiDTuGYy6Rv0J2AamT/EuDvo
1CNs4iokk1o=
-----END CERTIFICATE-----
