Certificate:
    Data:
        Version: 3 (0x2)
        Serial Number:
            d8:d3:e3:a6:cb:e3:cd:91
        Signature Algorithm: sha256WithRSAEncryption
        Issuer: C=FI, L=Tuusula, O=w1.fi, CN=Root CA
        Validity
            Not Before: Apr 25 12:50:49 2025 GMT
            Not After : Apr 25 12:50:49 2026 GMT
        Subject: C=FI, O=w1.fi, CN=server.w1.fi
        Subject Public Key Info:
            Public Key Algorithm: rsaEncryption
                Public-Key: (2048 bit)
                Modulus:
                    00:fd:0e:5e:cd:19:2c:6a:41:83:d9:2c:0e:36:cd:
                    09:b0:8f:b2:c9:8c:c8:d2:03:38:6e:54:bc:43:ee:
                    ce:f8:59:b1:e9:3f:6d:d4:5e:e3:c5:73:19:3d:0b:
                    bc:29:d7:d0:6e:75:00:35:fc:f7:65:b1:b6:0f:cb:
                    06:49:cf:a9:4e:3d:c2:64:4b:18:24:0a:70:b8:6e:
                    54:dc:90:3f:6c:18:fd:b6:88:ab:37:dc:8b:4b:b5:
                    e1:ff:ed:bb:45:05:a3:f0:aa:51:2b:f1:79:06:7f:
                    2f:cd:5d:fc:e6:8a:af:1b:b9:7b:ca:43:75:01:1d:
                    8e:2d:d9:11:13:86:fb:3c:4b:60:a4:29:49:e3:d2:
                    20:20:cb:5c:0d:9c:d2:9c:30:21:11:bc:b3:74:df:
                    64:b0:b7:67:ee:6a:df:af:3d:18:02:b7:dc:e5:54:
                    75:b5:6c:40:c4:b0:8a:1b:c6:fd:ab:1e:b9:ef:d1:
                    83:09:0d:55:ba:17:88:4e:d0:bd:cf:73:36:7c:28:
                    4b:f6:aa:48:d4:e8:fb:25:d8:1d:af:c9:68:73:ac:
                    46:ae:cb:eb:79:36:57:ad:c3:70:02:15:6d:f0:a5:
                    43:73:ab:72:04:b1:16:60:74:0e:4a:c1:8f:52:28:
                    1a:95:7e:ab:d0:04:f6:fa:11:da:1b:d1:99:a4:4f:
                    9e:ed
                Exponent: 65537 (0x10001)
        X509v3 extensions:
            X509v3 Basic Constraints: 
                CA:FALSE
            X509v3 Subject Key Identifier: 
                71:26:7A:1F:72:81:97:24:11:AA:C0:75:FA:BF:31:10:69:49:D0:E7
            X509v3 Authority Key Identifier: 
                A4:FD:B9:39:1B:81:B3:AA:EB:88:1D:D4:81:A9:B5:11:70:CC:A7:E1
            Authority Information Access: 
                OCSP - URI:http://server.w1.fi:8888/
            X509v3 Subject Alternative Name: 
                DNS:server.w1.fi
            X509v3 Extended Key Usage: 
                TLS Web Server Authentication
    Signature Algorithm: sha256WithRSAEncryption
    Signature Value:
        80:97:3e:c2:74:04:8f:33:b2:6e:91:f5:d5:18:7e:44:81:9b:
        0b:25:be:a8:d1:98:b4:ac:25:f2:54:03:a9:3f:4b:c0:47:5c:
        02:01:89:8f:cc:b1:28:51:82:f6:c5:63:0f:45:cc:28:fe:63:
        e0:36:bd:43:7d:97:c8:46:92:4c:40:b1:07:56:a3:89:62:77:
        f0:0a:9c:0d:05:28:2c:57:79:f5:57:24:95:b1:67:8f:ff:45:
        b8:0a:18:24:36:d6:8a:60:72:0a:88:db:49:6d:ab:e3:29:4c:
        65:93:fc:94:25:23:3d:df:d7:ae:03:05:bc:d2:40:f8:9a:a8:
        04:cb:ce:ac:9a:28:61:72:ab:99:37:f0:39:13:6a:9c:af:55:
        29:47:fc:53:5f:43:1c:c7:a3:69:c9:f4:d9:1c:fd:0f:12:28:
        9d:a0:4f:ad:e1:27:b2:b7:08:98:6b:07:c8:b6:ff:a7:6e:b5:
        11:57:e2:43:fb:a6:dc:52:ab:0a:73:90:60:43:44:d4:06:f9:
        57:7a:55:a9:84:f3:62:00:7c:07:48:3a:44:68:d4:e5:fa:a6:
        8b:51:e9:14:ea:5b:a3:e7:4d:42:2f:6b:cd:11:5f:36:7c:12:
        23:a4:b2:2d:04:c2:7b:7d:1f:24:ac:06:21:09:b7:99:70:17:
        fb:d8:d4:c8
-----BEGIN CERTIFICATE-----
MIIDrDCCApSgAwIBAgIJANjT46bL482RMA0GCSqGSIb3DQEBCwUAMEExCzAJBgNV
BAYTAkZJMRAwDgYDVQQHDAdUdXVzdWxhMQ4wDAYDVQQKDAV3MS5maTEQMA4GA1UE
AwwHUm9vdCBDQTAeFw0yNTA0MjUxMjUwNDlaFw0yNjA0MjUxMjUwNDlaMDQxCzAJ
BgNVBAYTAkZJMQ4wDAYDVQQKDAV3MS5maTEVMBMGA1UEAwwMc2VydmVyLncxLmZp
MIIBIjANBgkqhkiG9w0BAQEFAAOCAQ8AMIIBCgKCAQEA/Q5ezRksakGD2SwONs0J
sI+yyYzI0gM4blS8Q+7O+Fmx6T9t1F7jxXMZPQu8KdfQbnUANfz3ZbG2D8sGSc+p
Tj3CZEsYJApwuG5U3JA/bBj9toirN9yLS7Xh/+27RQWj8KpRK/F5Bn8vzV385oqv
G7l7ykN1AR2OLdkRE4b7PEtgpClJ49IgIMtcDZzSnDAhEbyzdN9ksLdn7mrfrz0Y
Arfc5VR1tWxAxLCKG8b9qx6579GDCQ1VuheITtC9z3M2fChL9qpI1Oj7Jdgdr8lo
c6xGrsvreTZXrcNwAhVt8KVDc6tyBLEWYHQOSsGPUigalX6r0AT2+hHaG9GZpE+e
7QIDAQABo4GzMIGwMAkGA1UdEwQCMAAwHQYDVR0OBBYEFHEmeh9ygZckEarAdfq/
MRBpSdDnMB8GA1UdIwQYMBaAFKT9uTkbgbOq64gd1IGptRFwzKfhMDUGCCsGAQUF
BwEBBCkwJzAlBggrBgEFBQcwAYYZaHR0cDovL3NlcnZlci53MS5maTo4ODg4LzAX
BgNVHREEEDAOggxzZXJ2ZXIudzEuZmkwEwYDVR0lBAwwCgYIKwYBBQUHAwEwDQYJ
KoZIhvcNAQELBQADggEBAICXPsJ0BI8zsm6R9dUYfkSBmwslvqjRmLSsJfJUA6k/
S8BHXAIBiY/MsShRgvbFYw9FzCj+Y+A2vUN9l8hGkkxAsQdWo4lid/AKnA0FKCxX
efVXJJWxZ4//RbgKGCQ21opgcgqI20ltq+MpTGWT/JQlIz3f164DBbzSQPiaqATL
zqyaKGFyq5k38DkTapyvVSlH/FNfQxzHo2nJ9Nkc/Q8SKJ2gT63hJ7K3CJhrB8i2
/6dutRFX4kP7ptxSqwpzkGBDRNQG+Vd6VamE82IAfAdIOkRo1OX6potR6RTqW6Pn
TUIva80RXzZ8EiOksi0Ewnt9HySsBiEJt5lwF/vY1Mg=
-----END CERTIFICATE-----
