Certificate:
    Data:
        Version: 3 (0x2)
        Serial Number:
            d8:d3:e3:a6:cb:e3:cd:94
        Signature Algorithm: sha256WithRSAEncryption
        Issuer: C=FI, L=Tuusula, O=w1.fi, CN=Root CA
        Validity
            Not Before: Apr 25 12:50:49 2025 GMT
            Not After : Apr 25 12:50:49 2026 GMT
        Subject: C=FI, O=w1.fi, CN=server5.w1.fi
        Subject Public Key Info:
            Public Key Algorithm: rsaEncryption
                Public-Key: (2048 bit)
                Modulus:
                    00:a5:94:60:80:b8:c8:61:18:8c:02:9d:dc:cc:c4:
                    74:d1:17:b5:3b:47:9c:38:0f:3b:92:74:fb:ea:27:
                    45:44:8a:9a:2a:4d:10:25:8e:77:ce:1a:09:c9:73:
                    19:fe:dc:70:36:5e:8c:fa:8f:4c:84:bb:f7:72:e4:
                    94:4f:fc:47:2a:7d:89:92:a3:2b:5a:69:9c:c8:5a:
                    10:39:32:61:7d:0a:78:19:b4:36:eb:ac:4c:d6:af:
                    75:00:14:4e:15:2f:5f:83:ee:62:f5:ac:7b:0c:81:
                    ba:a2:08:36:7b:f0:ef:63:31:62:fb:86:a6:cf:da:
                    36:83:44:8d:75:28:b6:e4:10:f3:32:dd:8a:6c:5b:
                    ee:4f:f1:1e:53:0b:13:7c:c7:bc:f7:9e:32:80:1e:
                    63:3e:92:75:2f:c5:21:5e:f0:2a:ac:e2:34:e4:17:
                    b2:34:f7:e8:2a:12:8a:21:b8:03:e7:b6:d8:f8:32:
                    b5:fe:71:45:52:98:de:b9:3d:41:f5:90:a5:76:83:
                    c1:18:ca:50:5d:2c:52:8b:6e:4f:a7:5b:bb:d8:e3:
                    14:25:70:de:d1:c7:9d:59:cf:24:46:c7:f5:6e:6f:
                    83:66:ed:1b:1d:3e:51:04:94:67:64:df:51:22:3c:
                    c0:e1:24:0a:37:6a:dc:6a:8b:fd:45:5b:96:2d:03:
                    ac:63
                Exponent: 65537 (0x10001)
        X509v3 extensions:
            X509v3 Basic Constraints: 
                CA:FALSE
            X509v3 Subject Key Identifier: 
                32:9F:9F:30:24:73:73:CB:8D:53:3A:80:23:EB:5B:5D:4C:DD:06:01
            X509v3 Authority Key Identifier: 
                A4:FD:B9:39:1B:81:B3:AA:EB:88:1D:D4:81:A9:B5:11:70:CC:A7:E1
            Authority Information Access: 
                OCSP - URI:http://server.w1.fi:8888/
            X509v3 Extended Key Usage: 
                TLS Web Client Authentication
    Signature Algorithm: sha256WithRSAEncryption
    Signature Value:
        13:f9:64:7e:8b:68:b1:38:4c:f8:4d:06:da:c6:a5:dc:50:31:
        5b:d3:87:1b:2a:76:b0:0d:2f:82:77:34:47:16:6b:39:eb:9f:
        d5:f2:78:d4:e6:98:b8:4f:d2:48:e6:1d:45:15:8e:4e:03:8b:
        0d:05:67:df:46:a5:88:0f:64:79:3d:de:33:e0:c8:a1:4f:75:
        58:75:5f:92:78:b5:c0:16:9f:78:d0:d5:76:28:9a:eb:9b:c6:
        13:3f:96:95:d9:64:0d:72:ab:30:8a:5a:6a:e3:db:b4:e0:8f:
        6d:17:ee:13:3a:0c:c7:f3:08:08:1c:ac:e1:5b:d1:b2:7f:7a:
        11:e9:0c:6c:b4:40:81:b5:29:62:a3:13:90:39:61:14:97:7c:
        ad:3b:38:0d:0d:d3:f2:66:56:db:13:18:6e:80:9c:95:1f:e7:
        6d:e3:57:56:3f:53:ab:a4:93:10:ff:b7:a7:80:5f:b2:8e:e1:
        de:68:20:72:ee:9a:62:3c:a1:40:8e:a5:95:73:65:13:3a:53:
        57:eb:7d:55:80:a2:cc:37:f5:43:6e:0b:33:b9:33:74:bf:7d:
        b1:7d:93:4b:0b:dc:e1:d8:b9:f5:3d:ac:fb:7f:3c:2f:b6:19:
        e3:63:d9:03:86:35:10:ca:d5:51:fe:fe:ba:90:f4:46:d3:64:
        89:94:f4:87
-----BEGIN CERTIFICATE-----
MIIDlDCCAnygAwIBAgIJANjT46bL482UMA0GCSqGSIb3DQEBCwUAMEExCzAJBgNV
BAYTAkZJMRAwDgYDVQQHDAdUdXVzdWxhMQ4wDAYDVQQKDAV3MS5maTEQMA4GA1UE
AwwHUm9vdCBDQTAeFw0yNTA0MjUxMjUwNDlaFw0yNjA0MjUxMjUwNDlaMDUxCzAJ
BgNVBAYTAkZJMQ4wDAYDVQQKDAV3MS5maTEWMBQGA1UEAwwNc2VydmVyNS53MS5m
aTCCASIwDQYJKoZIhvcNAQEBBQADggEPADCCAQoCggEBAKWUYIC4yGEYjAKd3MzE
dNEXtTtHnDgPO5J0++onRUSKmipNECWOd84aCclzGf7ccDZejPqPTIS793LklE/8
Ryp9iZKjK1ppnMhaEDkyYX0KeBm0NuusTNavdQAUThUvX4PuYvWsewyBuqIINnvw
72MxYvuGps/aNoNEjXUotuQQ8zLdimxb7k/xHlMLE3zHvPeeMoAeYz6SdS/FIV7w
KqziNOQXsjT36CoSiiG4A+e22Pgytf5xRVKY3rk9QfWQpXaDwRjKUF0sUotuT6db
u9jjFCVw3tHHnVnPJEbH9W5vg2btGx0+UQSUZ2TfUSI8wOEkCjdq3GqL/UVbli0D
rGMCAwEAAaOBmjCBlzAJBgNVHRMEAjAAMB0GA1UdDgQWBBQyn58wJHNzy41TOoAj
61tdTN0GATAfBgNVHSMEGDAWgBSk/bk5G4GzquuIHdSBqbURcMyn4TA1BggrBgEF
BQcBAQQpMCcwJQYIKwYBBQUHMAGGGWh0dHA6Ly9zZXJ2ZXIudzEuZmk6ODg4OC8w
EwYDVR0lBAwwCgYIKwYBBQUHAwIwDQYJKoZIhvcNAQELBQADggEBABP5ZH6LaLE4
TPhNBtrGpdxQMVvThxsqdrANL4J3NEcWaznrn9XyeNTmmLhP0kjmHUUVjk4Diw0F
Z99GpYgPZHk93jPgyKFPdVh1X5J4tcAWn3jQ1XYomuubxhM/lpXZZA1yqzCKWmrj
27Tgj20X7hM6DMfzCAgcrOFb0bJ/ehHpDGy0QIG1KWKjE5A5YRSXfK07OA0N0/Jm
VtsTGG6AnJUf523jV1Y/U6ukkxD/t6eAX7KO4d5oIHLummI8oUCOpZVzZRM6U1fr
fVWAosw39UNuCzO5M3S/fbF9k0sL3OHYufU9rPt/PC+2GeNj2QOGNRDK1VH+/rqQ
9EbTZImU9Ic=
-----END CERTIFICATE-----
