Certificate:
    Data:
        Version: 3 (0x2)
        Serial Number:
            d8:d3:e3:a6:cb:e3:cd:95
        Signature Algorithm: sha256WithRSAEncryption
        Issuer: C=FI, L=Tuusula, O=w1.fi, CN=Root CA
        Validity
            Not Before: Apr 25 12:50:49 2025 GMT
            Not After : Apr 25 12:50:49 2026 GMT
        Subject: C=FI, O=w1.fi, CN=server6.w1.fi
        Subject Public Key Info:
            Public Key Algorithm: rsaEncryption
                Public-Key: (2048 bit)
                Modulus:
                    00:d0:23:f4:80:12:be:4a:64:4d:af:99:af:52:ef:
                    8d:f5:73:9a:1a:28:2b:92:e8:d4:90:25:3e:85:47:
                    9f:c9:c4:b9:7a:35:24:84:2f:1e:51:16:66:d3:ac:
                    31:ea:f1:63:a4:4c:ea:26:f0:fa:61:c7:9f:f2:74:
                    69:6a:78:09:c5:c9:89:74:db:6d:ba:c7:b6:b1:f0:
                    61:1f:ef:3a:1c:d5:c6:fc:95:5d:9b:37:d6:5b:cb:
                    37:93:59:ed:50:f2:6a:a2:01:5c:9e:22:af:3a:31:
                    d9:ee:eb:33:49:93:4e:46:ee:9d:7b:86:86:da:2b:
                    1d:f9:f3:a2:01:7d:0d:55:1c:3b:67:e9:c9:fb:bc:
                    a9:52:4c:4a:21:85:68:50:2f:e4:05:c1:3f:e0:b3:
                    a3:25:d4:6c:2e:61:7c:9d:d5:da:93:bb:19:fe:ea:
                    bf:f2:c8:f9:dc:de:48:54:e1:fe:d4:b5:94:5a:3f:
                    2c:2b:8c:b1:6c:ef:3a:b0:d2:0c:2c:13:75:61:db:
                    97:6b:fa:6b:f9:9d:f7:14:aa:35:72:d8:4c:0b:a1:
                    5c:08:c5:87:d4:e4:87:1d:6b:0a:50:1f:b5:0e:3f:
                    bb:36:8b:c6:e0:bd:1e:1a:e1:1c:f3:37:a4:91:65:
                    4c:43:b4:9e:cc:1b:61:68:09:bd:1e:ab:61:bd:c1:
                    91:71
                Exponent: 65537 (0x10001)
        X509v3 extensions:
            X509v3 Basic Constraints: 
                CA:FALSE
            X509v3 Subject Key Identifier: 
                AB:D2:88:CA:9C:44:26:89:2E:C0:B9:8D:46:DD:5C:69:02:9E:01:CB
            X509v3 Authority Key Identifier: 
                A4:FD:B9:39:1B:81:B3:AA:EB:88:1D:D4:81:A9:B5:11:70:CC:A7:E1
            Authority Information Access: 
                OCSP - URI:http://server.w1.fi:8888/
            X509v3 Extended Key Usage: 
                TLS Web Client Authentication, TLS Web Server Authentication
    Signature Algorithm: sha256WithRSAEncryption
    Signature Value:
        0a:f4:d9:e5:5c:a2:6f:9a:59:5d:f8:a7:12:a7:72:a7:84:01:
        0a:7c:97:6f:38:a7:1a:6b:35:49:fb:83:40:d2:33:49:68:b5:
        e7:cb:dd:3d:2c:b6:81:e9:48:50:ee:8e:70:53:25:91:64:b8:
        98:07:d4:d1:ff:8d:3a:dd:75:72:f7:ed:65:f6:54:11:d1:98:
        34:e3:4c:46:65:a4:a4:24:c3:12:40:02:cf:88:69:16:27:87:
        80:30:5b:4d:58:d2:a9:78:90:16:1d:5c:7c:5f:6a:c6:03:7a:
        dd:e2:e8:b0:83:95:e1:94:0a:36:00:5f:2a:0a:80:b1:94:c2:
        02:a5:52:2d:af:d4:2d:0d:59:20:eb:d9:0b:20:4d:6a:ba:fb:
        3f:5e:b5:25:77:6c:a7:23:3e:16:e5:db:70:22:87:f4:b2:22:
        58:3e:31:c3:4b:da:10:c7:b5:7a:56:de:d6:5a:a3:a9:53:b0:
        d2:44:d1:44:bf:bd:a5:bf:74:ee:06:19:7a:84:81:be:16:2b:
        76:1a:9a:7b:84:f5:89:f9:81:a4:33:fc:74:51:ed:eb:4b:27:
        71:35:e6:3f:17:33:dc:7a:e7:50:68:5d:38:dd:64:7a:4d:f9:
        d1:30:cc:61:4e:9e:ee:90:c5:ff:70:73:c3:22:ba:8e:9e:c9:
        1f:f6:e3:1b
-----BEGIN CERTIFICATE-----
MIIDnjCCAoagAwIBAgIJANjT46bL482VMA0GCSqGSIb3DQEBCwUAMEExCzAJBgNV
BAYTAkZJMRAwDgYDVQQHDAdUdXVzdWxhMQ4wDAYDVQQKDAV3MS5maTEQMA4GA1UE
AwwHUm9vdCBDQTAeFw0yNTA0MjUxMjUwNDlaFw0yNjA0MjUxMjUwNDlaMDUxCzAJ
BgNVBAYTAkZJMQ4wDAYDVQQKDAV3MS5maTEWMBQGA1UEAwwNc2VydmVyNi53MS5m
aTCCASIwDQYJKoZIhvcNAQEBBQADggEPADCCAQoCggEBANAj9IASvkpkTa+Zr1Lv
jfVzmhooK5Lo1JAlPoVHn8nEuXo1JIQvHlEWZtOsMerxY6RM6ibw+mHHn/J0aWp4
CcXJiXTbbbrHtrHwYR/vOhzVxvyVXZs31lvLN5NZ7VDyaqIBXJ4irzox2e7rM0mT
TkbunXuGhtorHfnzogF9DVUcO2fpyfu8qVJMSiGFaFAv5AXBP+CzoyXUbC5hfJ3V
2pO7Gf7qv/LI+dzeSFTh/tS1lFo/LCuMsWzvOrDSDCwTdWHbl2v6a/md9xSqNXLY
TAuhXAjFh9Tkhx1rClAftQ4/uzaLxuC9HhrhHPM3pJFlTEO0nswbYWgJvR6rYb3B
kXECAwEAAaOBpDCBoTAJBgNVHRMEAjAAMB0GA1UdDgQWBBSr0ojKnEQmiS7AuY1G
3VxpAp4ByzAfBgNVHSMEGDAWgBSk/bk5G4GzquuIHdSBqbURcMyn4TA1BggrBgEF
BQcBAQQpMCcwJQYIKwYBBQUHMAGGGWh0dHA6Ly9zZXJ2ZXIudzEuZmk6ODg4OC8w
HQYDVR0lBBYwFAYIKwYBBQUHAwIGCCsGAQUFBwMBMA0GCSqGSIb3DQEBCwUAA4IB
AQAK9NnlXKJvmlld+KcSp3KnhAEKfJdvOKcaazVJ+4NA0jNJaLXny909LLaB6UhQ
7o5wUyWRZLiYB9TR/4063XVy9+1l9lQR0Zg040xGZaSkJMMSQALPiGkWJ4eAMFtN
WNKpeJAWHVx8X2rGA3rd4uiwg5XhlAo2AF8qCoCxlMICpVItr9QtDVkg69kLIE1q
uvs/XrUld2ynIz4W5dtwIof0siJYPjHDS9oQx7V6Vt7WWqOpU7DSRNFEv72lv3Tu
Bhl6hIG+Fit2Gpp7hPWJ+YGkM/x0Ue3rSydxNeY/FzPceudQaF043WR6TfnRMMxh
Tp7ukMX/cHPDIrqOnskf9uMb
-----END CERTIFICATE-----
