Certificate:
    Data:
        Version: 3 (0x2)
        Serial Number:
            d8:d3:e3:a6:cb:e3:cd:92
        Signature Algorithm: sha256WithRSAEncryption
        Issuer: C=FI, L=Tuusula, O=w1.fi, CN=Root CA
        Validity
            Not Before: Apr 25 12:50:49 2025 GMT
            Not After : Apr 25 12:50:49 2026 GMT
        Subject: C=FI, O=w1.fi, CN=server3.w1.fi
        Subject Public Key Info:
            Public Key Algorithm: rsaEncryption
                Public-Key: (2048 bit)
                Modulus:
                    00:c2:eb:ad:04:6f:4c:eb:23:b8:92:4e:75:dc:00:
                    d0:0d:d9:ad:09:21:f8:12:4a:2d:cd:db:7d:63:a1:
                    32:12:8e:b8:e3:bd:df:95:39:3a:17:65:54:f8:20:
                    d6:71:37:7d:b7:b4:72:31:7a:7a:3d:ba:74:72:f3:
                    ac:9d:16:38:35:1b:7d:50:3b:ad:96:5d:a7:c0:76:
                    0b:bb:4c:06:a8:d0:f7:2d:3d:94:a5:14:26:1a:11:
                    d8:42:1b:2d:4e:6e:60:9d:6a:cf:22:db:36:65:e2:
                    17:35:bc:69:2e:ab:30:e5:cd:fc:9a:e4:4f:0f:d1:
                    01:c3:e6:33:71:31:cd:6f:da:8c:21:9d:f7:1b:d1:
                    ed:7e:39:7a:fd:69:a3:88:1c:e6:f6:d3:3b:1a:1e:
                    d3:70:c3:ad:35:2a:22:a4:de:60:90:37:5d:e7:e0:
                    ce:9b:7d:4c:b5:cb:41:1b:9c:96:51:df:58:4d:b7:
                    67:da:95:25:60:8a:ff:6c:62:84:da:d6:24:b9:65:
                    d9:7a:59:f8:c8:bd:03:be:f6:17:d8:0e:86:ae:9a:
                    4c:7d:53:f6:b1:0e:82:cd:06:61:77:dd:46:5c:fd:
                    45:6a:f2:e8:22:ca:63:8b:d3:1c:f6:4f:10:ec:ea:
                    1a:08:1e:38:3d:80:6c:a3:48:47:f2:16:2a:07:5b:
                    f7:89
                Exponent: 65537 (0x10001)
        X509v3 extensions:
            X509v3 Basic Constraints: 
                CA:FALSE
            X509v3 Subject Key Identifier: 
                5E:84:D6:31:98:17:71:F8:63:5C:32:5B:7D:33:C0:D4:FA:36:A7:6A
            X509v3 Authority Key Identifier: 
                A4:FD:B9:39:1B:81:B3:AA:EB:88:1D:D4:81:A9:B5:11:70:CC:A7:E1
            Authority Information Access: 
                OCSP - URI:http://server.w1.fi:8888/
            X509v3 Extended Key Usage: 
                TLS Web Server Authentication
    Signature Algorithm: sha256WithRSAEncryption
    Signature Value:
        a3:2c:33:d8:aa:92:b3:10:5e:4e:2e:6e:87:8a:89:1d:b4:b9:
        dc:e3:41:dd:76:c5:bc:ae:1e:98:1d:45:36:0f:e3:bc:7d:91:
        2e:4d:1b:c7:b6:e3:5d:df:74:80:27:c6:20:ea:1c:6b:fd:fe:
        16:41:1c:37:dc:85:12:b1:5b:9d:9c:b9:76:cd:06:07:92:e3:
        5f:38:a7:73:86:6e:8a:ea:3c:60:f5:40:b7:b3:c9:b4:a1:28:
        07:e8:80:f0:6e:77:86:e7:88:c5:6a:33:32:55:74:82:9b:27:
        26:80:54:80:e6:56:6b:35:7a:53:57:ec:6b:2a:3e:d5:2e:a0:
        27:c5:0c:c6:e6:73:b0:fb:3b:88:9a:9e:60:5f:f5:af:d8:d4:
        8b:28:cf:2d:c6:19:19:a0:f7:87:3b:71:4e:9a:4c:12:c1:e9:
        b7:98:5a:d0:58:50:cb:fa:0d:5a:c0:ce:61:4c:24:19:32:38:
        90:07:4a:1c:9b:90:8f:e3:f1:fa:d1:8a:b6:36:f2:bc:99:e3:
        a4:33:28:a1:73:ba:e1:61:56:b2:7c:c5:dd:d6:87:96:71:f0:
        70:38:44:a7:ff:cd:a5:cf:92:d1:fe:40:15:2d:5d:ed:ed:e2:
        cb:21:f5:c3:4c:d7:a0:2e:99:38:6e:52:77:cf:01:cf:86:72:
        26:7f:99:ff
-----BEGIN CERTIFICATE-----
MIIDlDCCAnygAwIBAgIJANjT46bL482SMA0GCSqGSIb3DQEBCwUAMEExCzAJBgNV
BAYTAkZJMRAwDgYDVQQHDAdUdXVzdWxhMQ4wDAYDVQQKDAV3MS5maTEQMA4GA1UE
AwwHUm9vdCBDQTAeFw0yNTA0MjUxMjUwNDlaFw0yNjA0MjUxMjUwNDlaMDUxCzAJ
BgNVBAYTAkZJMQ4wDAYDVQQKDAV3MS5maTEWMBQGA1UEAwwNc2VydmVyMy53MS5m
aTCCASIwDQYJKoZIhvcNAQEBBQADggEPADCCAQoCggEBAMLrrQRvTOsjuJJOddwA
0A3ZrQkh+BJKLc3bfWOhMhKOuOO935U5OhdlVPgg1nE3fbe0cjF6ej26dHLzrJ0W
ODUbfVA7rZZdp8B2C7tMBqjQ9y09lKUUJhoR2EIbLU5uYJ1qzyLbNmXiFzW8aS6r
MOXN/JrkTw/RAcPmM3ExzW/ajCGd9xvR7X45ev1po4gc5vbTOxoe03DDrTUqIqTe
YJA3Xefgzpt9TLXLQRucllHfWE23Z9qVJWCK/2xihNrWJLll2XpZ+Mi9A772F9gO
hq6aTH1T9rEOgs0GYXfdRlz9RWry6CLKY4vTHPZPEOzqGggeOD2AbKNIR/IWKgdb
94kCAwEAAaOBmjCBlzAJBgNVHRMEAjAAMB0GA1UdDgQWBBRehNYxmBdx+GNcMlt9
M8DU+janajAfBgNVHSMEGDAWgBSk/bk5G4GzquuIHdSBqbURcMyn4TA1BggrBgEF
BQcBAQQpMCcwJQYIKwYBBQUHMAGGGWh0dHA6Ly9zZXJ2ZXIudzEuZmk6ODg4OC8w
EwYDVR0lBAwwCgYIKwYBBQUHAwEwDQYJKoZIhvcNAQELBQADggEBAKMsM9iqkrMQ
Xk4uboeKiR20udzjQd12xbyuHpgdRTYP47x9kS5NG8e2413fdIAnxiDqHGv9/hZB
HDfchRKxW52cuXbNBgeS4184p3OGborqPGD1QLezybShKAfogPBud4bniMVqMzJV
dIKbJyaAVIDmVms1elNX7GsqPtUuoCfFDMbmc7D7O4ianmBf9a/Y1Isozy3GGRmg
94c7cU6aTBLB6beYWtBYUMv6DVrAzmFMJBkyOJAHShybkI/j8frRirY28ryZ46Qz
KKFzuuFhVrJ8xd3Wh5Zx8HA4RKf/zaXPktH+QBUtXe3t4ssh9cNM16AumThuUnfP
Ac+GciZ/mf8=
-----END CERTIFICATE-----
