Certificate:
    Data:
        Version: 3 (0x2)
        Serial Number:
            10:4e:ea:da:20:77:35:8c:02:3e:3a:25:1c:63:82:f3:a0:e6:82:c9
        Signature Algorithm: sha384WithRSAEncryption
        Issuer: C=FI, L=Helsinki, O=w1.fi, CN=SHA384 and SHA512 Root CA
        Validity
            Not Before: Nov 27 10:06:39 2025 GMT
            Not After : Nov 25 10:06:39 2035 GMT
        Subject: C=FI, O=w1.fi, CN=sha384.server.w1.fi
        Subject Public Key Info:
            Public Key Algorithm: rsaEncryption
                Public-Key: (3072 bit)
                Modulus:
                    00:d7:ad:6a:0a:42:b0:05:40:54:06:5b:ad:16:42:
                    2d:2a:01:1c:f8:13:14:04:9f:10:f4:64:a7:e4:62:
                    6d:0e:78:54:44:6c:37:44:21:9f:ef:c7:9c:ed:63:
                    af:3c:de:27:97:de:29:8d:52:63:00:1b:af:a5:9b:
                    54:b4:f9:cc:50:c9:99:50:48:be:c2:70:26:4f:dc:
                    6a:f9:99:1b:5d:22:1b:80:e1:ff:f8:53:2b:5d:ef:
                    77:1c:ba:c0:86:52:67:eb:53:db:01:76:ea:44:65:
                    12:dc:c0:f0:53:4d:f5:4b:fc:b9:b2:0f:a6:79:05:
                    7b:48:9f:f7:a9:06:be:3a:a2:a9:34:71:4e:bc:36:
                    b1:b1:eb:b9:9f:88:de:22:aa:15:c9:cf:3d:88:62:
                    b8:31:b6:a3:f3:c4:d6:6b:c4:58:b8:c6:0f:e1:86:
                    9a:28:ac:88:79:21:6d:e4:91:c3:2d:df:02:7e:6a:
                    fd:8c:78:7b:2b:49:88:d9:1a:bd:b0:e2:d4:4f:37:
                    0b:22:4f:0d:cd:84:8f:7e:04:8b:70:3b:61:bc:8c:
                    fa:f8:0e:b0:98:cf:da:34:ce:36:f8:77:7b:d0:a1:
                    ab:f2:8b:2c:37:fd:62:bf:ae:1e:a4:87:f4:31:c5:
                    7c:8a:b9:0a:c6:39:48:66:62:d3:93:14:36:ef:dd:
                    49:5a:65:00:99:c5:90:12:3c:fb:06:9f:31:5e:f8:
                    21:8e:35:a8:4d:22:37:b3:73:dc:7a:a4:95:5e:5a:
                    7d:ff:f5:fb:5a:9e:c0:34:47:88:fe:2f:54:c4:d2:
                    46:37:4e:54:b7:7f:04:de:fa:a0:88:ba:16:e1:ff:
                    2e:8c:70:9e:c5:9a:e3:48:64:ce:1b:35:b9:d5:ee:
                    4c:a0:79:b2:90:59:4c:08:6c:0a:2c:a5:3f:db:9b:
                    cc:af:7d:8c:9d:bd:e9:20:ee:83:b7:cf:65:33:b4:
                    2f:4d:bd:91:46:cf:eb:96:33:ed:d6:60:da:89:28:
                    69:6b:48:6b:20:c1:aa:bd:91:eb
                Exponent: 65537 (0x10001)
        X509v3 extensions:
            X509v3 Basic Constraints: critical
                CA:FALSE
            X509v3 Subject Key Identifier: 
                E7:BA:64:6A:50:43:88:D0:25:21:11:05:15:01:CC:2E:E0:25:FA:0C
            X509v3 Authority Key Identifier: 
                69:95:64:59:96:63:91:3E:FF:E4:E6:4F:85:18:5E:06:D6:3D:7F:7E
            X509v3 Subject Alternative Name: critical
                DNS:sha384.server.w1.fi
            X509v3 Extended Key Usage: critical
                TLS Web Server Authentication
            X509v3 Key Usage: 
                Digital Signature, Key Encipherment
    Signature Algorithm: sha384WithRSAEncryption
    Signature Value:
        97:78:a3:7f:dc:9f:3c:3d:e3:ec:2d:87:11:c4:d5:da:35:41:
        09:ef:8d:0f:0b:2e:56:de:98:34:46:13:fd:5d:5b:ab:c1:4c:
        a0:dd:38:bd:c1:7b:02:60:2a:8d:92:b4:41:1e:06:4e:c4:49:
        cb:bb:dd:a8:a5:9b:4c:34:6a:ef:90:a7:cb:7a:59:17:23:e1:
        e3:bf:3d:f6:5f:71:7c:f5:66:ed:9b:19:49:76:95:91:30:9e:
        66:c3:01:7e:bd:bf:da:23:05:2a:0a:c2:0e:cf:84:cf:18:b0:
        99:90:6b:30:c3:07:0f:32:d8:45:14:04:c7:84:ae:14:e1:e1:
        89:5f:bc:ce:eb:29:07:0b:66:f6:d8:03:16:f2:77:88:83:19:
        3e:91:70:22:a7:a2:c2:b9:c4:34:c6:fa:15:ea:75:d9:4e:90:
        1a:70:fa:5d:9e:bb:03:4a:93:b8:26:c5:c0:d1:0d:33:3c:d6:
        e9:1e:0e:1f:79:d4:da:69:1b:ba:ff:11:21:1c:76:9e:f3:f0:
        92:8b:a5:9e:c8:a4:b1:52:bf:79:a0:cd:89:bf:64:45:a7:d2:
        ab:51:ff:59:54:71:95:da:e0:7b:65:00:8b:b4:b9:a4:42:33:
        ff:12:95:34:3c:ff:fe:6f:9e:53:c3:f3:15:13:c8:73:d5:50:
        f6:62:0b:c1:07:c6:0f:90:a4:12:ab:a1:13:e3:4a:13:27:4a:
        d2:5e:c6:13:de:32:b9:9f:20:4f:9d:30:47:79:dc:f8:6e:d3:
        39:20:f3:90:9d:df:43:a9:39:0d:40:51:41:45:ea:76:bb:ab:
        55:b8:6a:6c:c7:02:2d:c3:fc:32:d8:7a:e9:7d:70:5f:52:ad:
        c6:fd:ed:18:7d:64:a3:c6:92:00:43:fe:0b:17:e2:c8:c8:92:
        0a:f3:ac:ac:a6:af:62:a6:8e:5b:cb:c4:75:91:8e:b9:22:0e:
        e5:08:19:78:3e:46:d0:fb:8f:ba:21:67:b1:91:e6:02:fc:d1:
        93:3c:9e:f0:ee:87:3d:26:e4:6a:0a:73:4d:ad:e1:d6:ab:d5:
        e6:5a:57:fb:f3:6d:4c:90:ca:30:99:98:17:d0:2e:5c:06:4c:
        23:f8:96:47:f5:1d:24:e7:fb:97:42:93:4c:11:60:1c:e4:3c:
        c0:0d:ee:bd:0d:f1:d2:18:e0:b4:1a:29:9f:b8:51:92:cf:98:
        25:a7:5d:1d:19:e4:b1:bc:41:0f:ce:9e:16:ff:41:3f:ec:b0:
        4b:aa:86:72:ec:7f:fe:65:1d:31:47:18:3c:93:a5:8f:ce:31:
        28:86:f6:a0:4b:45:66:dc:f0:49:b8:0f:f3:22:5a:70:5b:e9:
        0c:26:a0:46:1c:be:7a:fe
-----BEGIN CERTIFICATE-----
MIIFNzCCAx+gAwIBAgIUEE7q2iB3NYwCPjolHGOC86DmgskwDQYJKoZIhvcNAQEM
BQAwVDELMAkGA1UEBhMCRkkxETAPBgNVBAcMCEhlbHNpbmtpMQ4wDAYDVQQKDAV3
MS5maTEiMCAGA1UEAwwZU0hBMzg0IGFuZCBTSEE1MTIgUm9vdCBDQTAeFw0yNTEx
MjcxMDA2MzlaFw0zNTExMjUxMDA2MzlaMDsxCzAJBgNVBAYTAkZJMQ4wDAYDVQQK
DAV3MS5maTEcMBoGA1UEAwwTc2hhMzg0LnNlcnZlci53MS5maTCCAaIwDQYJKoZI
hvcNAQEBBQADggGPADCCAYoCggGBANetagpCsAVAVAZbrRZCLSoBHPgTFASfEPRk
p+RibQ54VERsN0Qhn+/HnO1jrzzeJ5feKY1SYwAbr6WbVLT5zFDJmVBIvsJwJk/c
avmZG10iG4Dh//hTK13vdxy6wIZSZ+tT2wF26kRlEtzA8FNN9Uv8ubIPpnkFe0if
96kGvjqiqTRxTrw2sbHruZ+I3iKqFcnPPYhiuDG2o/PE1mvEWLjGD+GGmiisiHkh
beSRwy3fAn5q/Yx4eytJiNkavbDi1E83CyJPDc2Ej34Ei3A7YbyM+vgOsJjP2jTO
Nvh3e9Chq/KLLDf9Yr+uHqSH9DHFfIq5CsY5SGZi05MUNu/dSVplAJnFkBI8+waf
MV74IY41qE0iN7Nz3HqklV5aff/1+1qewDRHiP4vVMTSRjdOVLd/BN76oIi6FuH/
LoxwnsWa40hkzhs1udXuTKB5spBZTAhsCiylP9ubzK99jJ296SDug7fPZTO0L029
kUbP65Yz7dZg2okoaWtIayDBqr2R6wIDAQABo4GZMIGWMAwGA1UdEwEB/wQCMAAw
HQYDVR0OBBYEFOe6ZGpQQ4jQJSERBRUBzC7gJfoMMB8GA1UdIwQYMBaAFGmVZFmW
Y5E+/+TmT4UYXgbWPX9+MCEGA1UdEQEB/wQXMBWCE3NoYTM4NC5zZXJ2ZXIudzEu
ZmkwFgYDVR0lAQH/BAwwCgYIKwYBBQUHAwEwCwYDVR0PBAQDAgWgMA0GCSqGSIb3
DQEBDAUAA4ICAQCXeKN/3J88PePsLYcRxNXaNUEJ740PCy5W3pg0RhP9XVurwUyg
3Ti9wXsCYCqNkrRBHgZOxEnLu92opZtMNGrvkKfLelkXI+Hjvz32X3F89WbtmxlJ
dpWRMJ5mwwF+vb/aIwUqCsIOz4TPGLCZkGswwwcPMthFFATHhK4U4eGJX7zO6ykH
C2b22AMW8neIgxk+kXAip6LCucQ0xvoV6nXZTpAacPpdnrsDSpO4JsXA0Q0zPNbp
Hg4fedTaaRu6/xEhHHae8/CSi6WeyKSxUr95oM2Jv2RFp9KrUf9ZVHGV2uB7ZQCL
tLmkQjP/EpU0PP/+b55Tw/MVE8hz1VD2YgvBB8YPkKQSq6ET40oTJ0rSXsYT3jK5
nyBPnTBHedz4btM5IPOQnd9DqTkNQFFBRep2u6tVuGpsxwItw/wy2HrpfXBfUq3G
/e0YfWSjxpIAQ/4LF+LIyJIK86yspq9ipo5by8R1kY65Ig7lCBl4PkbQ+4+6IWex
keYC/NGTPJ7w7oc9JuRqCnNNreHWq9XmWlf7821MkMowmZgX0C5cBkwj+JZH9R0k
5/uXQpNMEWAc5DzADe69DfHSGOC0GimfuFGSz5glp10dGeSxvEEPzp4W/0E/7LBL
qoZy7H/+ZR0xRxg8k6WPzjEohvagS0Vm3PBJuA/zIlpwW+kMJqBGHL56/g==
-----END CERTIFICATE-----
