Certificate:
    Data:
        Version: 3 (0x2)
        Serial Number:
            10:4e:ea:da:20:77:35:8c:02:3e:3a:25:1c:63:82:f3:a0:e6:82:cb
        Signature Algorithm: sha384WithRSAEncryption
        Issuer: C=FI, L=Helsinki, O=w1.fi, CN=SHA384 and SHA512 Root CA
        Validity
            Not Before: Nov 27 10:06:40 2025 GMT
            Not After : Nov 25 10:06:40 2035 GMT
        Subject: C=FI, O=w1.fi, CN=user-sha384
        Subject Public Key Info:
            Public Key Algorithm: rsaEncryption
                Public-Key: (2900 bit)
                Modulus:
                    0d:ab:9d:38:8b:71:27:71:4f:3a:a0:4c:c8:9f:1f:
                    63:74:97:0d:43:68:66:95:c5:ed:42:8d:81:c7:02:
                    bd:77:ab:84:28:67:3e:77:05:57:ac:af:a9:27:07:
                    5c:e4:f8:4d:fc:ca:5f:d2:5c:aa:54:d3:e0:12:09:
                    9f:ee:c6:bc:40:d8:45:c9:06:28:5a:eb:63:d0:6a:
                    28:06:75:fa:e3:7d:73:e2:ab:57:13:e2:1f:4d:a2:
                    e7:29:d4:9b:27:6a:8a:57:c1:b3:b1:a1:e8:cc:7e:
                    47:4d:00:99:d2:06:c4:7b:b1:dd:d6:ad:54:8e:4d:
                    f0:87:86:33:7b:90:f5:4d:f7:3d:06:85:1b:8a:2e:
                    97:e6:d3:f4:76:d5:f8:96:27:a9:0f:2c:15:20:ee:
                    78:be:d5:cc:8b:35:e0:20:9f:42:17:0d:a7:36:53:
                    39:ad:26:66:19:16:79:29:25:41:d3:e3:a1:bd:87:
                    8c:77:23:97:3c:ac:e2:89:97:c6:11:af:4e:b8:39:
                    80:4f:1e:cc:71:84:54:a3:2c:a2:bb:02:10:97:f3:
                    9b:b4:03:ea:81:ed:d7:dd:e3:81:c5:f3:fe:ac:46:
                    b1:3c:59:d9:42:82:e0:ab:14:db:34:07:27:21:e1:
                    bb:67:26:ba:67:9a:0f:73:36:85:7f:ec:8a:47:56:
                    66:92:57:43:87:de:6d:5a:3e:f4:a9:b8:38:a0:94:
                    c1:32:a5:a4:89:64:f3:ab:dd:0f:9a:a3:2c:cc:f2:
                    9d:8b:f3:14:0b:3d:67:5f:d2:f7:dd:93:c9:80:5a:
                    f4:8f:30:5f:04:ff:a2:95:07:d2:70:da:75:6a:68:
                    3d:b5:1f:d1:9b:0e:27:a8:c0:26:25:06:23:c4:ab:
                    3b:b8:45:1e:1f:75:83:60:43:ee:41:34:77:a2:2c:
                    b4:6c:87:0f:11:be:b0:d5:7a:fe:28:a5:19:a5:14:
                    be:1e:d9
                Exponent: 65537 (0x10001)
        X509v3 extensions:
            X509v3 Basic Constraints: 
                CA:FALSE
            X509v3 Subject Key Identifier: 
                B1:6C:F4:BF:B5:95:77:1B:7A:42:D7:FD:4C:23:C3:A4:A3:E9:C9:FC
            X509v3 Authority Key Identifier: 
                69:95:64:59:96:63:91:3E:FF:E4:E6:4F:85:18:5E:06:D6:3D:7F:7E
            X509v3 Subject Alternative Name: 
                email:user-sha384@w1.fi
            X509v3 Extended Key Usage: 
                TLS Web Client Authentication
            X509v3 Key Usage: 
                Digital Signature, Key Encipherment
    Signature Algorithm: sha384WithRSAEncryption
    Signature Value:
        4d:f8:94:62:fc:3b:36:89:f7:ff:8a:af:06:b2:31:71:82:66:
        c0:df:3e:31:6f:ca:0a:0c:4c:e0:05:4c:de:2f:06:e0:de:40:
        8c:c7:24:cc:5b:c0:a5:59:98:b5:7f:f2:62:c1:f5:8e:0e:c4:
        ea:be:b5:a5:29:8c:7f:d4:73:67:e6:b0:97:e7:93:b3:bc:c3:
        9d:0b:d4:a6:f1:96:a6:ff:46:4e:16:ba:12:3f:c2:6d:60:a0:
        21:58:a5:e6:0f:be:20:f5:91:2d:dc:ae:43:08:48:f4:9f:84:
        9e:9d:9f:60:0a:ac:83:19:9c:c9:c1:67:47:2c:78:5d:93:2f:
        3f:c4:95:03:5b:ed:3f:71:48:6b:6e:2e:99:be:f3:cb:38:fa:
        d1:4d:8f:11:f4:05:02:e9:f1:31:d2:bd:d2:80:d5:85:b6:fc:
        1a:37:d8:04:ed:29:17:02:4e:7b:1b:18:52:ff:b2:fc:d3:04:
        89:6e:68:02:60:98:0a:2b:b2:84:ab:d3:bb:fa:dd:d8:0c:95:
        0f:42:76:36:2d:fc:64:9e:b3:18:bb:e3:bc:2d:a4:89:8f:e8:
        3a:a3:33:f1:a8:06:6c:23:32:ea:a7:28:25:af:99:9b:77:4f:
        04:eb:29:9c:f7:ee:9e:a0:08:49:21:38:6e:89:89:0e:d9:f4:
        e7:a6:a5:78:6e:3b:70:79:3d:ee:af:24:49:57:be:26:5f:83:
        6e:b9:c8:7b:ee:f0:02:c1:1f:cb:4c:7c:ab:2f:85:62:46:d7:
        aa:04:d0:8d:15:c3:90:55:b2:3f:19:61:ea:ad:59:8c:15:1f:
        03:23:c9:40:6e:2a:fa:00:62:48:73:d3:64:30:cd:3e:a3:4c:
        b5:e0:66:49:a6:74:77:25:7f:3d:aa:48:e8:71:6e:ab:b6:c8:
        ed:54:7c:92:45:b6:e7:49:47:9d:68:fa:db:2d:90:87:e1:6f:
        cb:b8:a3:ac:aa:5b:67:79:00:d1:25:ce:d9:13:fd:72:33:f2:
        1b:58:3c:bd:b9:14:e0:41:2e:7c:e0:c7:77:b1:22:64:cd:74:
        83:43:c8:cf:4d:e7:82:c1:61:c3:ce:f7:f8:e2:2e:8b:d6:58:
        1d:b6:04:b0:93:5d:1f:ad:61:cf:94:a7:aa:c3:ac:a4:0f:82:
        38:a6:4f:d5:4b:c2:01:da:a7:d8:b7:1b:eb:d4:96:0d:b8:0b:
        b8:24:5d:7b:e8:98:5b:82:a4:70:44:fb:25:c1:4a:13:94:68:
        1d:56:e1:70:7b:f2:d9:84:ce:99:bc:1d:24:2f:2b:2b:1a:7a:
        ab:2f:80:69:cb:52:9c:82:16:c1:0b:aa:1d:29:4e:82:b5:72:
        4a:34:21:50:5a:2f:86:8d
-----BEGIN CERTIFICATE-----
MIIFDjCCAvagAwIBAgIUEE7q2iB3NYwCPjolHGOC86DmgsswDQYJKoZIhvcNAQEM
BQAwVDELMAkGA1UEBhMCRkkxETAPBgNVBAcMCEhlbHNpbmtpMQ4wDAYDVQQKDAV3
MS5maTEiMCAGA1UEAwwZU0hBMzg0IGFuZCBTSEE1MTIgUm9vdCBDQTAeFw0yNTEx
MjcxMDA2NDBaFw0zNTExMjUxMDA2NDBaMDMxCzAJBgNVBAYTAkZJMQ4wDAYDVQQK
DAV3MS5maTEUMBIGA1UEAwwLdXNlci1zaGEzODQwggGMMA0GCSqGSIb3DQEBAQUA
A4IBeQAwggF0AoIBaw2rnTiLcSdxTzqgTMifH2N0lw1DaGaVxe1CjYHHAr13q4Qo
Zz53BVesr6knB1zk+E38yl/SXKpU0+ASCZ/uxrxA2EXJBiha62PQaigGdfrjfXPi
q1cT4h9Noucp1JsnaopXwbOxoejMfkdNAJnSBsR7sd3WrVSOTfCHhjN7kPVN9z0G
hRuKLpfm0/R21fiWJ6kPLBUg7ni+1cyLNeAgn0IXDac2UzmtJmYZFnkpJUHT46G9
h4x3I5c8rOKJl8YRr064OYBPHsxxhFSjLKK7AhCX85u0A+qB7dfd44HF8/6sRrE8
WdlCguCrFNs0Bych4btnJrpnmg9zNoV/7IpHVmaSV0OH3m1aPvSpuDiglMEypaSJ
ZPOr3Q+aoyzM8p2L8xQLPWdf0vfdk8mAWvSPMF8E/6KVB9Jw2nVqaD21H9GbDieo
wCYlBiPEqzu4RR4fdYNgQ+5BNHeiLLRshw8RvrDVev4opRmlFL4e2QIDAQABo4GO
MIGLMAkGA1UdEwQCMAAwHQYDVR0OBBYEFLFs9L+1lXcbekLX/Uwjw6Sj6cn8MB8G
A1UdIwQYMBaAFGmVZFmWY5E+/+TmT4UYXgbWPX9+MBwGA1UdEQQVMBOBEXVzZXIt
c2hhMzg0QHcxLmZpMBMGA1UdJQQMMAoGCCsGAQUFBwMCMAsGA1UdDwQEAwIFoDAN
BgkqhkiG9w0BAQwFAAOCAgEATfiUYvw7Non3/4qvBrIxcYJmwN8+MW/KCgxM4AVM
3i8G4N5AjMckzFvApVmYtX/yYsH1jg7E6r61pSmMf9RzZ+awl+eTs7zDnQvUpvGW
pv9GTha6Ej/CbWCgIVil5g++IPWRLdyuQwhI9J+Enp2fYAqsgxmcycFnRyx4XZMv
P8SVA1vtP3FIa24umb7zyzj60U2PEfQFAunxMdK90oDVhbb8GjfYBO0pFwJOexsY
Uv+y/NMEiW5oAmCYCiuyhKvTu/rd2AyVD0J2Ni38ZJ6zGLvjvC2kiY/oOqMz8agG
bCMy6qcoJa+Zm3dPBOspnPfunqAISSE4bomJDtn056aleG47cHk97q8kSVe+Jl+D
brnIe+7wAsEfy0x8qy+FYkbXqgTQjRXDkFWyPxlh6q1ZjBUfAyPJQG4q+gBiSHPT
ZDDNPqNMteBmSaZ0dyV/PapI6HFuq7bI7VR8kkW250lHnWj62y2Qh+Fvy7ijrKpb
Z3kA0SXO2RP9cjPyG1g8vbkU4EEufODHd7EiZM10g0PIz03ngsFhw873+OIui9ZY
HbYEsJNdH61hz5SnqsOspA+COKZP1UvCAdqn2Lcb69SWDbgLuCRde+iYW4KkcET7
JcFKE5RoHVbhcHvy2YTOmbwdJC8rKxp6qy+AactSnIIWwQuqHSlOgrVySjQhUFov
ho0=
-----END CERTIFICATE-----
