Certificate:
    Data:
        Version: 3 (0x2)
        Serial Number:
            10:4e:ea:da:20:77:35:8c:02:3e:3a:25:1c:63:82:f3:a0:e6:82:c8
        Signature Algorithm: sha512WithRSAEncryption
        Issuer: C=FI, L=Helsinki, O=w1.fi, CN=SHA384 and SHA512 Root CA
        Validity
            Not Before: Nov 27 10:06:39 2025 GMT
            Not After : Nov 25 10:06:39 2035 GMT
        Subject: C=FI, O=w1.fi, CN=sha512.server.w1.fi
        Subject Public Key Info:
            Public Key Algorithm: rsaEncryption
                Public-Key: (3500 bit)
                Modulus:
                    0c:6d:71:5e:ae:d2:c0:4c:a1:7c:be:fb:d4:aa:5f:
                    ee:4c:78:c0:d1:33:4c:9f:3e:79:9d:83:90:51:56:
                    32:0b:c1:2e:1e:9c:16:5c:5b:e6:c4:f7:f6:c5:a8:
                    06:28:26:c6:62:ba:a4:6b:0f:c4:ba:99:80:a2:81:
                    40:6a:89:37:31:82:40:23:7b:38:af:cc:b6:24:35:
                    8e:65:ac:2c:b5:7b:29:80:c8:29:18:fc:d4:94:fd:
                    d0:6c:0d:ff:f2:c1:12:50:83:97:a9:b5:b7:e4:0b:
                    d2:fb:85:2d:ea:84:5f:ab:76:1b:c0:9d:eb:49:d0:
                    5c:00:3e:b7:49:ea:3e:d5:62:d4:dd:fc:97:f0:e3:
                    98:9e:cc:92:ab:ca:58:ce:f3:8a:58:80:87:9b:76:
                    be:67:7d:8a:f0:07:7f:6f:20:bc:22:86:1f:a4:f1:
                    f7:a4:d6:ee:a1:87:7b:3b:c2:70:27:f0:82:a8:87:
                    52:a4:e2:2b:de:a6:63:a0:0b:c1:fd:ac:9d:a0:31:
                    e9:1e:e2:75:51:44:77:72:f5:ed:f7:b7:01:3f:99:
                    5d:ca:9c:b4:c2:65:44:4d:e6:08:85:3b:a4:c5:74:
                    8e:84:57:74:eb:6c:f4:a3:df:24:5d:81:69:16:f3:
                    0c:ab:f4:eb:67:4e:8f:c0:07:ee:8c:b5:42:36:a2:
                    15:dc:a2:f3:c9:3f:14:80:fa:b7:88:2d:66:7d:63:
                    07:93:59:f0:43:f7:d8:c0:4b:28:0d:e4:42:52:95:
                    5b:80:40:fa:d8:25:08:01:97:a5:80:f1:4d:33:9a:
                    fd:1d:99:d2:7f:4b:1b:35:fa:d0:26:d9:4d:9d:83:
                    a1:9c:0d:05:44:44:eb:9f:fd:57:f9:da:8d:1e:bb:
                    13:1a:99:e2:4c:37:90:60:6a:b4:cb:ea:c0:24:c9:
                    c5:f5:ad:d1:b4:0f:56:3f:d4:77:0a:39:f0:b7:af:
                    9e:4b:d9:8f:91:89:d1:26:83:5d:93:5b:45:63:45:
                    57:ce:f8:64:b1:55:77:5b:2f:59:0f:ad:d6:6d:bb:
                    02:8b:5f:35:c3:8a:1b:b1:72:5e:68:c7:19:01:4d:
                    2f:ab:8c:d0:e3:7c:cc:8e:d4:5e:3a:bc:85:80:0b:
                    88:5c:10:42:81:22:53:f0:89:07:54:6e:d0:33:74:
                    88:9b:8d
                Exponent: 65537 (0x10001)
        X509v3 extensions:
            X509v3 Basic Constraints: critical
                CA:FALSE
            X509v3 Subject Key Identifier: 
                09:B0:CD:AE:72:3A:7C:BA:13:9C:58:D9:40:97:CF:50:16:38:B5:FB
            X509v3 Authority Key Identifier: 
                69:95:64:59:96:63:91:3E:FF:E4:E6:4F:85:18:5E:06:D6:3D:7F:7E
            X509v3 Subject Alternative Name: critical
                DNS:sha512.server.w1.fi
            X509v3 Extended Key Usage: critical
                TLS Web Server Authentication
            X509v3 Key Usage: 
                Digital Signature, Key Encipherment
    Signature Algorithm: sha512WithRSAEncryption
    Signature Value:
        18:07:74:87:b3:90:a8:0a:a0:5f:f4:c2:69:89:ef:7f:4e:ff:
        93:f6:26:bc:9a:ad:32:7f:06:9d:e6:34:cc:57:ea:95:83:75:
        13:95:5d:cc:86:16:44:fd:af:86:fb:d2:bc:ad:d7:f5:c7:45:
        56:47:1a:87:83:c8:12:31:93:51:57:94:39:32:b4:59:67:5d:
        66:ce:ff:70:83:db:90:3b:cd:41:39:6f:59:80:53:3f:31:ca:
        70:2b:8b:f9:42:ee:fb:3e:dc:6c:32:0e:71:4c:c5:06:cc:db:
        2a:46:11:75:3a:39:76:84:47:ab:5b:d9:77:31:a4:69:03:ef:
        ae:17:6e:74:2c:6a:0b:84:cd:4b:92:95:0a:51:85:a6:28:35:
        d1:2b:cf:12:a1:7a:f8:4e:ea:1d:6b:64:40:ca:4b:d9:66:e0:
        a7:44:58:cb:9c:72:70:25:57:79:62:55:ce:b2:6b:32:90:a6:
        ec:29:7a:db:b4:69:47:be:26:bc:92:06:17:6c:2d:c0:8d:cd:
        50:42:17:33:b9:54:8f:30:7e:b2:0b:d5:d9:81:11:39:82:af:
        c5:c7:e7:3f:61:d0:b4:ed:d2:92:3a:40:69:06:a1:f2:bf:84:
        47:07:41:19:65:03:3d:32:19:3a:3f:2e:fe:9f:31:d1:e6:67:
        0c:19:af:5a:1d:2e:5e:11:ed:9a:ef:a9:df:1d:f8:00:a1:5a:
        5d:f8:08:f9:28:92:9f:7d:fe:f8:d9:f4:ef:ea:9e:f5:c6:90:
        09:5d:eb:3c:97:23:da:65:f5:65:9d:29:9c:e1:83:b8:e7:14:
        53:34:48:b5:fb:c7:d4:e2:fb:2b:d6:5b:80:c6:d5:fe:04:80:
        41:a3:24:6a:22:b0:e4:af:1c:41:51:ae:e4:56:51:4c:70:63:
        66:ee:67:ac:57:32:70:13:6f:38:00:c4:50:c0:7b:e5:24:48:
        b3:22:c9:1f:2d:52:55:d5:90:36:7c:38:b2:9f:2e:89:7c:fd:
        f1:eb:cd:1e:23:55:b1:9b:eb:2e:82:9e:50:03:8b:60:1e:3f:
        0b:47:f9:ac:4e:54:24:38:70:0f:82:0a:e4:19:f9:07:2b:7d:
        28:bc:ea:40:6e:31:9b:c2:66:71:d1:86:39:4e:4f:8e:aa:7e:
        ad:f3:94:35:e0:95:cd:83:bc:7d:41:26:e0:1d:b9:b8:e4:7b:
        bb:44:f1:72:fe:00:92:6a:7c:3b:cf:53:6a:6a:63:94:52:99:
        77:9b:1c:ab:3c:20:01:f4:2a:d4:22:8e:1a:25:d2:ab:c3:63:
        bf:d0:24:6e:65:8b:63:c7:d7:bf:45:7c:02:2a:ca:63:ec:96:
        97:cb:a4:04:5c:15:e4:38
-----BEGIN CERTIFICATE-----
MIIFbDCCA1SgAwIBAgIUEE7q2iB3NYwCPjolHGOC86DmgsgwDQYJKoZIhvcNAQEN
BQAwVDELMAkGA1UEBhMCRkkxETAPBgNVBAcMCEhlbHNpbmtpMQ4wDAYDVQQKDAV3
MS5maTEiMCAGA1UEAwwZU0hBMzg0IGFuZCBTSEE1MTIgUm9vdCBDQTAeFw0yNTEx
MjcxMDA2MzlaFw0zNTExMjUxMDA2MzlaMDsxCzAJBgNVBAYTAkZJMQ4wDAYDVQQK
DAV3MS5maTEcMBoGA1UEAwwTc2hhNTEyLnNlcnZlci53MS5maTCCAdcwDQYJKoZI
hvcNAQEBBQADggHEADCCAb8CggG2DG1xXq7SwEyhfL771Kpf7kx4wNEzTJ8+eZ2D
kFFWMgvBLh6cFlxb5sT39sWoBigmxmK6pGsPxLqZgKKBQGqJNzGCQCN7OK/MtiQ1
jmWsLLV7KYDIKRj81JT90GwN//LBElCDl6m1t+QL0vuFLeqEX6t2G8Cd60nQXAA+
t0nqPtVi1N38l/DjmJ7MkqvKWM7ziliAh5t2vmd9ivAHf28gvCKGH6Tx96TW7qGH
ezvCcCfwgqiHUqTiK96mY6ALwf2snaAx6R7idVFEd3L17fe3AT+ZXcqctMJlRE3m
CIU7pMV0joRXdOts9KPfJF2BaRbzDKv062dOj8AH7oy1QjaiFdyi88k/FID6t4gt
Zn1jB5NZ8EP32MBLKA3kQlKVW4BA+tglCAGXpYDxTTOa/R2Z0n9LGzX60CbZTZ2D
oZwNBURE65/9V/najR67ExqZ4kw3kGBqtMvqwCTJxfWt0bQPVj/Udwo58LevnkvZ
j5GJ0SaDXZNbRWNFV874ZLFVd1svWQ+t1m27AotfNcOKG7FyXmjHGQFNL6uM0ON8
zI7UXjq8hYALiFwQQoEiU/CJB1Ru0DN0iJuNAgMBAAGjgZkwgZYwDAYDVR0TAQH/
BAIwADAdBgNVHQ4EFgQUCbDNrnI6fLoTnFjZQJfPUBY4tfswHwYDVR0jBBgwFoAU
aZVkWZZjkT7/5OZPhRheBtY9f34wIQYDVR0RAQH/BBcwFYITc2hhNTEyLnNlcnZl
ci53MS5maTAWBgNVHSUBAf8EDDAKBggrBgEFBQcDATALBgNVHQ8EBAMCBaAwDQYJ
KoZIhvcNAQENBQADggIBABgHdIezkKgKoF/0wmmJ739O/5P2JryarTJ/Bp3mNMxX
6pWDdROVXcyGFkT9r4b70ryt1/XHRVZHGoeDyBIxk1FXlDkytFlnXWbO/3CD25A7
zUE5b1mAUz8xynAri/lC7vs+3GwyDnFMxQbM2ypGEXU6OXaER6tb2XcxpGkD764X
bnQsaguEzUuSlQpRhaYoNdErzxKhevhO6h1rZEDKS9lm4KdEWMuccnAlV3liVc6y
azKQpuwpetu0aUe+JrySBhdsLcCNzVBCFzO5VI8wfrIL1dmBETmCr8XH5z9h0LTt
0pI6QGkGofK/hEcHQRllAz0yGTo/Lv6fMdHmZwwZr1odLl4R7Zrvqd8d+AChWl34
CPkokp99/vjZ9O/qnvXGkAld6zyXI9pl9WWdKZzhg7jnFFM0SLX7x9Ti+yvWW4DG
1f4EgEGjJGoisOSvHEFRruRWUUxwY2buZ6xXMnATbzgAxFDAe+UkSLMiyR8tUlXV
kDZ8OLKfLol8/fHrzR4jVbGb6y6CnlADi2AePwtH+axOVCQ4cA+CCuQZ+QcrfSi8
6kBuMZvCZnHRhjlOT46qfq3zlDXglc2DvH1BJuAdubjke7tE8XL+AJJqfDvPU2pq
Y5RSmXebHKs8IAH0KtQijhol0qvDY7/QJG5li2PH179FfAIqymPslpfLpARcFeQ4
-----END CERTIFICATE-----
