Certificate:
    Data:
        Version: 3 (0x2)
        Serial Number:
            10:4e:ea:da:20:77:35:8c:02:3e:3a:25:1c:63:82:f3:a0:e6:82:ca
        Signature Algorithm: sha512WithRSAEncryption
        Issuer: C=FI, L=Helsinki, O=w1.fi, CN=SHA384 and SHA512 Root CA
        Validity
            Not Before: Nov 27 10:06:40 2025 GMT
            Not After : Nov 25 10:06:40 2035 GMT
        Subject: C=FI, O=w1.fi, CN=user-sha512
        Subject Public Key Info:
            Public Key Algorithm: rsaEncryption
                Public-Key: (3400 bit)
                Modulus:
                    00:cf:fa:2c:bd:22:3e:7b:bf:30:75:89:af:51:d1:
                    79:9a:98:77:e7:4b:82:51:63:dd:8a:4d:4a:00:65:
                    75:46:a4:ec:f9:6f:94:21:09:94:5a:37:42:36:ce:
                    ac:45:b8:ca:86:d7:55:11:0f:73:0c:f6:49:34:78:
                    94:27:0c:d4:ee:0b:53:9d:ac:4c:9c:e7:d0:21:b9:
                    cf:4f:f9:6e:dd:29:4d:a9:2d:fc:78:81:62:8c:ac:
                    39:5c:25:8a:9c:12:e1:a6:d1:71:2b:8b:3b:a7:1d:
                    93:72:49:8e:3f:ae:86:d2:ef:d9:cd:b0:a8:b2:b2:
                    35:67:c1:c5:68:17:36:03:88:2a:bf:2f:74:11:f9:
                    91:a2:aa:fb:ab:95:9b:8a:0b:08:93:ee:05:22:d8:
                    e4:e0:44:a9:8e:ee:e9:32:97:c2:c7:ed:ee:d7:72:
                    ba:25:b1:96:58:2d:8c:4c:b1:bf:d8:a8:ee:ef:2b:
                    9e:90:ed:cb:77:38:aa:56:19:76:4a:6c:22:48:c5:
                    20:ad:54:2f:43:3f:b8:a2:ba:b1:27:92:3f:40:dc:
                    b9:33:3f:9e:5e:f3:66:12:34:98:0f:fb:3d:94:a8:
                    73:22:d9:60:be:4a:90:6d:b2:71:38:c9:88:da:94:
                    ad:f5:1a:95:39:2f:72:8c:b1:e7:6a:64:0b:17:9c:
                    0f:4f:69:d6:c2:d0:95:e1:06:5f:d1:f8:6b:44:1f:
                    f3:4a:ea:09:50:bb:bf:c2:45:b3:f0:ba:81:9d:2f:
                    6f:ad:7a:d5:12:99:98:31:38:f7:ba:f0:84:dd:8e:
                    2d:34:1d:58:af:e2:07:b5:4f:e3:bb:f7:e0:c3:61:
                    66:16:92:37:5f:50:d4:90:cf:e6:5a:dc:66:43:de:
                    46:57:7c:21:12:f0:ed:e2:ec:b7:a2:c3:45:12:4e:
                    84:8d:27:16:6e:36:75:28:cf:6b:ed:8b:e5:a2:97:
                    d5:38:49:fa:31:97:de:ad:1d:bf:47:1d:79:68:15:
                    57:86:aa:93:c9:29:bb:58:82:e8:6c:28:9f:9d:eb:
                    ef:26:b2:22:44:84:42:0c:41:2d:58:d2:87:b3:b6:
                    c5:57:f3:3c:b2:9b:47:2d:35:98:cb:68:14:f5:e8:
                    3d:cd:d3:b1:b1:2d
                Exponent: 65537 (0x10001)
        X509v3 extensions:
            X509v3 Basic Constraints: 
                CA:FALSE
            X509v3 Subject Key Identifier: 
                86:11:89:B7:18:1F:9F:C6:D2:EB:12:06:A9:F0:55:7B:6C:37:DC:9D
            X509v3 Authority Key Identifier: 
                69:95:64:59:96:63:91:3E:FF:E4:E6:4F:85:18:5E:06:D6:3D:7F:7E
            X509v3 Subject Alternative Name: 
                email:user-sha512@w1.fi
            X509v3 Extended Key Usage: 
                TLS Web Client Authentication
            X509v3 Key Usage: 
                Digital Signature, Key Encipherment
    Signature Algorithm: sha512WithRSAEncryption
    Signature Value:
        8b:57:79:9b:24:de:3e:2f:5d:5c:4d:25:a0:c7:29:26:48:0c:
        32:21:b3:fd:21:a8:fc:10:70:76:38:8b:76:0a:50:55:1f:c3:
        f3:30:40:cb:85:eb:dd:6f:a0:7b:29:96:15:2f:13:f0:e0:b4:
        cc:9f:9c:af:0e:23:8e:f0:f4:fc:44:7b:b0:2f:3e:3b:48:df:
        65:a3:dc:b7:a0:c8:c7:81:2d:97:9a:93:e1:b0:35:b1:c7:34:
        b4:5d:2d:79:d4:22:1b:00:71:08:a7:58:6b:3e:06:fc:e7:11:
        fd:28:28:d9:41:9b:dc:a7:7e:d3:ae:7a:c5:2c:b9:f9:47:fc:
        f2:c3:8a:9d:b4:be:19:f3:a9:82:7a:31:a5:e1:d0:a9:47:7d:
        f4:df:81:02:55:10:9c:fd:39:19:71:33:6e:22:b5:70:bf:f1:
        2f:90:b4:4b:2d:f8:dc:92:35:00:80:c0:48:8e:a2:14:4e:7c:
        56:90:2f:20:aa:8f:2f:c0:3d:51:fa:a9:52:d4:c3:f2:9d:e4:
        92:ed:50:b9:48:e3:cf:39:91:3c:1c:9a:45:4f:5c:c4:f0:4d:
        90:eb:9a:a6:a3:ff:a9:1c:a9:b7:2c:0a:ff:da:34:97:d5:3b:
        b7:dc:89:06:a7:70:51:ab:4c:b0:ae:26:a1:59:48:9a:50:9a:
        a5:a9:f0:73:4e:8a:4e:0b:d6:33:64:53:c3:44:66:3f:fa:76:
        ae:de:aa:79:e2:bc:5d:55:3e:f0:90:54:94:68:06:12:a7:99:
        26:2c:3b:e7:6c:92:a2:d5:9f:f0:1c:3d:6c:e0:16:93:58:09:
        3c:a2:9e:d3:af:62:8c:71:43:fd:81:01:cd:96:2b:fe:f3:20:
        d7:f9:b7:7c:9a:99:09:6d:8d:0a:d9:42:c3:0e:41:bc:6d:56:
        76:0a:3b:81:84:7a:c9:43:be:9e:ac:31:5e:2a:5a:80:e6:9f:
        be:e3:6d:5a:0d:b2:ce:58:49:be:04:a5:89:f5:fa:5d:95:e2:
        b0:ba:9f:a1:77:19:52:a3:b2:20:c8:93:17:8a:fe:ef:37:d0:
        ca:08:21:ee:86:ab:83:06:71:0a:83:80:57:8e:4b:d7:e0:ad:
        88:0d:7d:04:20:52:40:84:73:6f:84:0a:e4:b2:b5:e9:fb:e3:
        b8:19:25:eb:c5:70:76:4e:a4:98:16:48:8a:7f:52:5b:c7:68:
        b8:68:7d:26:1b:23:63:c1:b6:73:37:26:12:df:28:5d:62:50:
        53:87:62:7c:fc:0d:30:2f:9e:e0:82:5c:49:d8:71:c8:05:13:
        11:2a:0f:5a:36:a5:d2:60:4e:55:a9:03:a0:62:09:a1:21:c4:
        2c:d4:c1:90:83:f3:2c:52
-----BEGIN CERTIFICATE-----
MIIFTTCCAzWgAwIBAgIUEE7q2iB3NYwCPjolHGOC86DmgsowDQYJKoZIhvcNAQEN
BQAwVDELMAkGA1UEBhMCRkkxETAPBgNVBAcMCEhlbHNpbmtpMQ4wDAYDVQQKDAV3
MS5maTEiMCAGA1UEAwwZU0hBMzg0IGFuZCBTSEE1MTIgUm9vdCBDQTAeFw0yNTEx
MjcxMDA2NDBaFw0zNTExMjUxMDA2NDBaMDMxCzAJBgNVBAYTAkZJMQ4wDAYDVQQK
DAV3MS5maTEUMBIGA1UEAwwLdXNlci1zaGE1MTIwggHLMA0GCSqGSIb3DQEBAQUA
A4IBuAAwggGzAoIBqgDP+iy9Ij57vzB1ia9R0XmamHfnS4JRY92KTUoAZXVGpOz5
b5QhCZRaN0I2zqxFuMqG11URD3MM9kk0eJQnDNTuC1OdrEyc59Ahuc9P+W7dKU2p
Lfx4gWKMrDlcJYqcEuGm0XErizunHZNySY4/robS79nNsKiysjVnwcVoFzYDiCq/
L3QR+ZGiqvurlZuKCwiT7gUi2OTgRKmO7ukyl8LH7e7XcrolsZZYLYxMsb/YqO7v
K56Q7ct3OKpWGXZKbCJIxSCtVC9DP7iiurEnkj9A3LkzP55e82YSNJgP+z2UqHMi
2WC+SpBtsnE4yYjalK31GpU5L3KMsedqZAsXnA9PadbC0JXhBl/R+GtEH/NK6glQ
u7/CRbPwuoGdL2+tetUSmZgxOPe68ITdji00HViv4ge1T+O79+DDYWYWkjdfUNSQ
z+Za3GZD3kZXfCES8O3i7Leiw0USToSNJxZuNnUoz2vti+Wil9U4Sfoxl96tHb9H
HXloFVeGqpPJKbtYguhsKJ+d6+8msiJEhEIMQS1Y0oeztsVX8zyym0ctNZjLaBT1
6D3N07GxLQIDAQABo4GOMIGLMAkGA1UdEwQCMAAwHQYDVR0OBBYEFIYRibcYH5/G
0usSBqnwVXtsN9ydMB8GA1UdIwQYMBaAFGmVZFmWY5E+/+TmT4UYXgbWPX9+MBwG
A1UdEQQVMBOBEXVzZXItc2hhNTEyQHcxLmZpMBMGA1UdJQQMMAoGCCsGAQUFBwMC
MAsGA1UdDwQEAwIFoDANBgkqhkiG9w0BAQ0FAAOCAgEAi1d5myTePi9dXE0loMcp
JkgMMiGz/SGo/BBwdjiLdgpQVR/D8zBAy4Xr3W+geymWFS8T8OC0zJ+crw4jjvD0
/ER7sC8+O0jfZaPct6DIx4Etl5qT4bA1scc0tF0tedQiGwBxCKdYaz4G/OcR/Sgo
2UGb3Kd+0656xSy5+Uf88sOKnbS+GfOpgnoxpeHQqUd99N+BAlUQnP05GXEzbiK1
cL/xL5C0Sy343JI1AIDASI6iFE58VpAvIKqPL8A9UfqpUtTD8p3kku1QuUjjzzmR
PByaRU9cxPBNkOuapqP/qRyptywK/9o0l9U7t9yJBqdwUatMsK4moVlImlCapanw
c06KTgvWM2RTw0RmP/p2rt6qeeK8XVU+8JBUlGgGEqeZJiw752ySotWf8Bw9bOAW
k1gJPKKe069ijHFD/YEBzZYr/vMg1/m3fJqZCW2NCtlCww5BvG1Wdgo7gYR6yUO+
nqwxXipagOafvuNtWg2yzlhJvgSlifX6XZXisLqfoXcZUqOyIMiTF4r+7zfQyggh
7oargwZxCoOAV45L1+CtiA19BCBSQIRzb4QK5LK16fvjuBkl68Vwdk6kmBZIin9S
W8douGh9JhsjY8G2czcmEt8oXWJQU4difPwNMC+e4IJcSdhxyAUTESoPWjal0mBO
VakDoGIJoSHELNTBkIPzLFI=
-----END CERTIFICATE-----
