Certificate:
    Data:
        Version: 3 (0x2)
        Serial Number:
            d8:d3:e3:a6:cb:e3:cd:99
        Signature Algorithm: sha256WithRSAEncryption
        Issuer: C=FI, L=Tuusula, O=w1.fi, CN=Root CA
        Validity
            Not Before: Apr 25 12:50:49 2025 GMT
            Not After : Apr 25 12:50:49 2026 GMT
        Subject: C=FI, O=w1.fi, CN=Test User
        Subject Public Key Info:
            Public Key Algorithm: rsaEncryption
                Public-Key: (2048 bit)
                Modulus:
                    00:bc:24:08:d9:07:6d:19:0e:94:5c:6b:d9:8a:84:
                    1b:03:22:e2:1a:06:42:d3:0b:60:8d:5f:31:04:06:
                    fa:a2:40:6a:0c:24:29:58:cd:83:bf:3a:9d:7f:37:
                    0d:4d:27:5d:d5:57:57:1c:f3:be:75:3f:3a:4c:44:
                    6f:02:2f:5b:8b:2c:b0:5c:47:29:19:31:08:d1:28:
                    f5:1e:9c:5b:9c:b7:e7:6b:40:35:10:3e:7f:66:67:
                    16:a1:4e:68:8a:71:cc:32:58:e3:08:87:a2:2a:07:
                    2d:7f:73:f6:43:e5:7f:f4:f6:74:ae:27:e8:d2:5c:
                    ae:9b:82:d9:a5:2a:72:76:84:2f:e3:62:aa:41:1e:
                    de:33:b7:64:f8:79:6f:fa:09:b5:bc:b0:8c:cd:34:
                    82:2d:c4:10:55:89:ea:6c:38:92:fe:61:d6:64:84:
                    04:d4:0a:37:32:37:8d:c3:55:d1:fc:ab:b8:55:06:
                    a9:00:4f:31:e2:42:f1:e7:b4:2e:9c:45:0d:dc:a9:
                    f9:ad:b2:77:c1:f0:b1:c3:a2:5a:26:90:bd:19:2f:
                    46:1d:a5:21:3d:f0:35:62:94:c8:cf:33:3f:d8:a2:
                    5d:df:cc:58:00:08:8d:ed:b1:04:c5:2b:3f:1a:15:
                    f6:92:08:d4:f1:42:cd:6c:db:f2:ff:e0:6e:69:84:
                    d8:8b
                Exponent: 65537 (0x10001)
        X509v3 extensions:
            X509v3 Basic Constraints: 
                CA:FALSE
            X509v3 Subject Key Identifier: 
                FB:85:00:A8:DF:D6:0C:0E:A7:E3:39:61:D9:BE:CE:2A:EF:6D:28:D8
            X509v3 Authority Key Identifier: 
                A4:FD:B9:39:1B:81:B3:AA:EB:88:1D:D4:81:A9:B5:11:70:CC:A7:E1
            Authority Information Access: 
                OCSP - URI:http://server.w1.fi:8888/
            X509v3 Extended Key Usage: 
                TLS Web Client Authentication
    Signature Algorithm: sha256WithRSAEncryption
    Signature Value:
        67:19:08:3c:bb:0e:5c:8b:fd:b2:5e:01:da:f1:46:e1:cd:4a:
        e4:7f:4d:84:71:95:63:49:d8:2d:5d:73:fe:65:0c:8c:ab:b7:
        56:d0:93:b1:b4:4d:36:86:49:42:ac:f1:ee:3b:bf:df:86:b6:
        b5:7a:81:87:5a:15:f4:d2:bf:c0:af:46:88:89:78:50:e7:54:
        1b:cd:93:19:c3:7c:d2:52:da:16:23:cc:a1:aa:c0:0f:1a:c4:
        ab:bb:65:34:22:28:b4:7d:2b:e5:d4:81:34:af:fc:ea:d6:ef:
        a1:39:08:69:6b:01:f2:dd:93:fb:07:62:69:73:d8:37:7c:19:
        09:a8:f5:b9:18:7b:be:27:c9:ec:f1:db:e2:9d:df:8e:19:24:
        e1:1a:8e:65:1f:2f:1d:75:62:d8:34:e7:56:5a:c8:c8:78:d9:
        34:f2:e6:79:4d:26:94:93:c7:ec:00:5f:dc:b6:57:d4:9e:23:
        82:f8:d2:98:97:2d:20:ff:68:2c:a3:f0:22:29:fc:b1:97:50:
        72:93:8f:0c:37:d6:50:6a:b7:3f:0c:53:67:a4:70:21:3a:fb:
        05:c5:c1:a4:b0:6d:04:28:2b:9b:8a:85:d0:1d:64:65:b8:f7:
        d7:1f:2b:6d:e8:e1:4e:46:4c:52:24:01:40:8a:ad:98:b1:a0:
        9b:e9:5a:67
-----BEGIN CERTIFICATE-----
MIIDkDCCAnigAwIBAgIJANjT46bL482ZMA0GCSqGSIb3DQEBCwUAMEExCzAJBgNV
BAYTAkZJMRAwDgYDVQQHDAdUdXVzdWxhMQ4wDAYDVQQKDAV3MS5maTEQMA4GA1UE
AwwHUm9vdCBDQTAeFw0yNTA0MjUxMjUwNDlaFw0yNjA0MjUxMjUwNDlaMDExCzAJ
BgNVBAYTAkZJMQ4wDAYDVQQKDAV3MS5maTESMBAGA1UEAwwJVGVzdCBVc2VyMIIB
IjANBgkqhkiG9w0BAQEFAAOCAQ8AMIIBCgKCAQEAvCQI2QdtGQ6UXGvZioQbAyLi
GgZC0wtgjV8xBAb6okBqDCQpWM2DvzqdfzcNTSdd1VdXHPO+dT86TERvAi9biyyw
XEcpGTEI0Sj1HpxbnLfna0A1ED5/ZmcWoU5oinHMMljjCIeiKgctf3P2Q+V/9PZ0
rifo0lyum4LZpSpydoQv42KqQR7eM7dk+Hlv+gm1vLCMzTSCLcQQVYnqbDiS/mHW
ZIQE1Ao3MjeNw1XR/Ku4VQapAE8x4kLx57QunEUN3Kn5rbJ3wfCxw6JaJpC9GS9G
HaUhPfA1YpTIzzM/2KJd38xYAAiN7bEExSs/GhX2kgjU8ULNbNvy/+BuaYTYiwID
AQABo4GaMIGXMAkGA1UdEwQCMAAwHQYDVR0OBBYEFPuFAKjf1gwOp+M5Ydm+zirv
bSjYMB8GA1UdIwQYMBaAFKT9uTkbgbOq64gd1IGptRFwzKfhMDUGCCsGAQUFBwEB
BCkwJzAlBggrBgEFBQcwAYYZaHR0cDovL3NlcnZlci53MS5maTo4ODg4LzATBgNV
HSUEDDAKBggrBgEFBQcDAjANBgkqhkiG9w0BAQsFAAOCAQEAZxkIPLsOXIv9sl4B
2vFG4c1K5H9NhHGVY0nYLV1z/mUMjKu3VtCTsbRNNoZJQqzx7ju/34a2tXqBh1oV
9NK/wK9GiIl4UOdUG82TGcN80lLaFiPMoarADxrEq7tlNCIotH0r5dSBNK/86tbv
oTkIaWsB8t2T+wdiaXPYN3wZCaj1uRh7vifJ7PHb4p3fjhkk4RqOZR8vHXVi2DTn
VlrIyHjZNPLmeU0mlJPH7ABf3LZX1J4jgvjSmJctIP9oLKPwIin8sZdQcpOPDDfW
UGq3PwxTZ6RwITr7BcXBpLBtBCgrm4qF0B1kZbj31x8rbejhTkZMUiQBQIqtmLGg
m+laZw==
-----END CERTIFICATE-----
