Certificate:
    Data:
        Version: 3 (0x2)
        Serial Number: 15706494745041001294 (0xd9f8adc108b55b4e)
    Signature Algorithm: sha256WithRSAEncryption
        Issuer: C=US, O=WFA Hotspot 2.0, CN=Hotspot 2.0 Trust Root CA - 99
        Validity
            Not Before: Mar 26 20:04:31 2015 GMT
            Not After : Mar 25 20:04:31 2045 GMT
        Subject: C=US, O=WFA Hotspot 2.0, CN=Hotspot 2.0 Trust Root CA - 99
        Subject Public Key Info:
            Public Key Algorithm: rsaEncryption
                Public-Key: (4096 bit)
                Modulus:
                    00:fa:c2:0e:1b:6f:3f:03:83:a8:fd:d8:2e:fa:17:
                    9b:29:6c:01:72:46:6f:64:e6:b9:38:03:a7:9c:64:
                    84:5c:16:25:8c:fb:61:82:1e:58:25:49:0b:1c:97:
                    b1:df:c7:50:97:a3:11:bb:46:12:b5:95:0f:25:7c:
                    9a:a5:f9:4c:6e:ab:c6:6d:56:50:ed:b3:5d:fc:80:
                    a7:28:c4:45:65:17:5f:ee:10:5f:9c:89:b6:9e:a6:
                    9c:5b:12:11:ce:b9:b5:00:1b:26:ef:fd:f0:45:f3:
                    10:4d:9b:cd:03:da:aa:df:93:43:9b:1e:14:7e:d6:
                    ec:d5:55:c2:06:86:a9:91:da:7a:da:e4:29:2a:0b:
                    03:89:71:6a:63:bd:51:b4:15:8b:77:45:62:01:16:
                    21:ba:c6:ea:13:aa:14:9b:5f:fb:f5:d8:ee:45:40:
                    1b:ba:c2:b2:76:56:7a:3a:10:1a:67:ec:92:74:c1:
                    09:37:d2:f8:2f:4b:98:f9:28:34:af:96:04:e3:74:
                    65:e6:3d:8e:9e:dc:10:2f:3a:67:86:07:47:42:b0:
                    f0:69:4e:88:a1:aa:f9:aa:40:4b:d5:91:ba:c2:71:
                    29:b5:77:82:ea:bd:71:6e:5a:42:92:f9:0e:ea:49:
                    e9:e1:50:7d:75:d2:62:ec:06:6c:de:66:a0:18:0f:
                    8e:b6:76:29:80:03:8c:dd:d5:1b:7b:48:2d:f4:08:
                    4f:83:f6:4e:69:1a:06:fa:e1:e5:80:0f:0c:c2:09:
                    a4:fe:b9:75:9b:6e:1b:4f:14:c8:d1:7d:62:9b:7e:
                    96:a8:45:c7:30:41:15:d1:52:92:55:31:49:1b:e0:
                    31:1d:0d:0d:86:76:38:f3:0b:99:d0:26:b2:bb:56:
                    3d:6e:42:01:fd:ac:47:5a:fc:6d:bd:85:75:48:a4:
                    83:37:48:c3:18:61:b3:61:13:07:c6:0f:16:e0:40:
                    b3:8c:86:fd:d7:9a:7c:be:77:40:05:87:67:be:e9:
                    29:e1:f9:20:5e:1d:e5:7e:6b:40:42:be:3b:5a:99:
                    84:84:5f:1d:f9:c7:a4:99:ae:3f:a3:76:5d:45:df:
                    92:d6:c9:3c:da:94:61:b8:05:da:ca:07:c3:2a:bc:
                    16:52:2a:0c:27:68:79:b2:76:e5:e1:b1:f7:ba:6c:
                    a3:40:37:86:81:4b:50:87:ec:75:20:3b:e6:0a:2f:
                    51:4d:1e:d8:f8:83:b5:07:78:48:c9:9a:af:e1:fe:
                    8f:5a:f4:82:86:b2:3b:73:a6:39:9a:da:89:ea:32:
                    10:1b:e3:9f:19:33:d9:a4:5e:7e:ff:57:bb:8a:68:
                    98:b2:d6:08:17:68:d6:44:23:ef:6d:e3:db:ab:b8:
                    94:51:55
                Exponent: 65537 (0x10001)
        X509v3 extensions:
            X509v3 Subject Key Identifier:
                29:57:73:89:D7:81:9D:D7:26:D2:80:FF:CC:CE:9C:6C:DC:C5:DE:EF
            X509v3 Basic Constraints: critical
                CA:TRUE
            X509v3 Key Usage: critical
                Certificate Sign, CRL Sign
    Signature Algorithm: sha256WithRSAEncryption
         f5:07:1d:55:80:6f:50:c2:54:f1:d5:e2:bb:d1:28:7a:d0:75:
         b2:18:55:fb:0a:99:6c:09:2b:1c:b5:f2:23:10:5a:93:09:88:
         ec:53:a2:71:e4:6a:b1:60:48:a1:d6:97:19:59:a1:30:dd:8e:
         69:8e:96:d8:b3:cb:af:f0:6c:7b:b2:c9:21:17:e9:ee:67:77:
         68:f5:5f:9f:52:63:27:c6:72:20:b4:a5:c1:15:9c:97:af:0b:
         82:83:c7:96:2c:25:34:c2:91:ba:fc:37:8c:56:94:f1:89:b6:
         1c:6f:66:c6:56:c6:3c:e2:26:f9:49:6c:4d:fe:42:12:c3:5c:
         5b:c9:5a:43:dd:73:1c:dd:2b:91:a7:be:03:5f:68:63:2d:c8:
         03:b4:5a:6e:0b:a3:c6:b8:47:5b:db:b6:c7:71:8f:07:b0:82:
         3f:b8:ec:8e:d4:a0:11:ec:b1:de:ca:8a:bf:2f:2b:93:d3:73:
         7d:06:4c:cd:08:6e:5f:92:41:32:ea:38:b7:75:89:9b:8e:a9:
         5e:e4:7b:79:5d:e4:4c:e5:c2:28:e3:c8:6a:e2:45:bc:04:77:
         69:90:82:01:cc:6a:5a:0a:99:c2:c2:96:70:56:c7:db:89:ac:
         50:b5:6a:b8:1a:12:75:81:6b:79:56:b8:f9:2d:7c:e0:e5:e6:
         e5:0a:df:aa:9d:d1:dc:35:c6:29:ca:ee:fd:c3:0c:76:96:bf:
         75:89:58:fc:00:c1:ba:64:9f:3d:7e:a4:46:09:e6:f7:a6:d4:
         f4:22:29:d0:0c:2f:a4:3b:83:64:c4:b8:56:b4:4f:87:8e:67:
         80:d1:fb:38:b7:6c:1c:c6:83:f2:1a:30:03:6d:91:11:c5:c4:
         c1:b6:26:37:39:2d:09:73:b7:ef:23:a7:45:52:f3:03:74:d5:
         e4:6b:8d:73:72:c7:17:cc:ba:3c:1a:6e:fc:12:a4:79:a6:d5:
         5c:aa:07:dc:e4:bc:9a:fa:dd:d8:6a:ec:30:85:d7:f6:a4:33:
         e7:73:b9:48:76:b9:16:a2:a2:c6:7e:0d:75:21:e5:13:70:41:
         05:03:d6:51:8d:0f:d9:4c:a2:1a:55:87:84:69:4c:e8:2a:85:
         6c:24:b1:0d:83:31:25:ba:24:1d:3c:b5:ed:ad:71:cc:8b:fd:
         4c:87:e9:be:96:5c:75:f8:7b:64:bc:0e:80:bf:33:d7:fd:7e:
         72:d0:59:75:21:2f:41:d2:39:96:91:ed:a2:fe:85:39:88:db:
         e0:ad:8f:f1:dc:94:dd:15:aa:ab:b8:24:f2:38:de:fa:f4:10:
         5f:a5:8b:ea:d0:e2:a5:07:1d:a5:2a:71:c8:8e:e6:41:b9:03:
         82:d0:d4:e8:1f:48:27:c0
-----BEGIN CERTIFICATE-----
MIIFZTCCA02gAwIBAgIJANn4rcEItVtOMA0GCSqGSIb3DQEBCwUAMFAxCzAJBgNV
BAYTAlVTMRgwFgYDVQQKDA9XRkEgSG90c3BvdCAyLjAxJzAlBgNVBAMMHkhvdHNw
b3QgMi4wIFRydXN0IFJvb3QgQ0EgLSA5OTAeFw0xNTAzMjYyMDA0MzFaFw00NTAz
MjUyMDA0MzFaMFAxCzAJBgNVBAYTAlVTMRgwFgYDVQQKDA9XRkEgSG90c3BvdCAy
LjAxJzAlBgNVBAMMHkhvdHNwb3QgMi4wIFRydXN0IFJvb3QgQ0EgLSA5OTCCAiIw
DQYJKoZIhvcNAQEBBQADggIPADCCAgoCggIBAPrCDhtvPwODqP3YLvoXmylsAXJG
b2TmuTgDp5xkhFwWJYz7YYIeWCVJCxyXsd/HUJejEbtGErWVDyV8mqX5TG6rxm1W
UO2zXfyApyjERWUXX+4QX5yJtp6mnFsSEc65tQAbJu/98EXzEE2bzQPaqt+TQ5se
FH7W7NVVwgaGqZHaetrkKSoLA4lxamO9UbQVi3dFYgEWIbrG6hOqFJtf+/XY7kVA
G7rCsnZWejoQGmfsknTBCTfS+C9LmPkoNK+WBON0ZeY9jp7cEC86Z4YHR0Kw8GlO
iKGq+apAS9WRusJxKbV3guq9cW5aQpL5DupJ6eFQfXXSYuwGbN5moBgPjrZ2KYAD
jN3VG3tILfQIT4P2TmkaBvrh5YAPDMIJpP65dZtuG08UyNF9Ypt+lqhFxzBBFdFS
klUxSRvgMR0NDYZ2OPMLmdAmsrtWPW5CAf2sR1r8bb2FdUikgzdIwxhhs2ETB8YP
FuBAs4yG/deafL53QAWHZ77pKeH5IF4d5X5rQEK+O1qZhIRfHfnHpJmuP6N2XUXf
ktbJPNqUYbgF2soHwyq8FlIqDCdoebJ25eGx97pso0A3hoFLUIfsdSA75govUU0e
2PiDtQd4SMmar+H+j1r0goayO3OmOZraieoyEBvjnxkz2aRefv9Xu4pomLLWCBdo
1kQj723j26u4lFFVAgMBAAGjQjBAMB0GA1UdDgQWBBQpV3OJ14Gd1ybSgP/Mzpxs
3MXe7zAPBgNVHRMBAf8EBTADAQH/MA4GA1UdDwEB/wQEAwIBBjANBgkqhkiG9w0B
AQsFAAOCAgEA9QcdVYBvUMJU8dXiu9EoetB1shhV+wqZbAkrHLXyIxBakwmI7FOi
ceRqsWBIodaXGVmhMN2OaY6W2LPLr/Bse7LJIRfp7md3aPVfn1JjJ8ZyILSlwRWc
l68LgoPHliwlNMKRuvw3jFaU8Ym2HG9mxlbGPOIm+UlsTf5CEsNcW8laQ91zHN0r
kae+A19oYy3IA7RabgujxrhHW9u2x3GPB7CCP7jsjtSgEeyx3sqKvy8rk9NzfQZM
zQhuX5JBMuo4t3WJm46pXuR7eV3kTOXCKOPIauJFvAR3aZCCAcxqWgqZwsKWcFbH
24msULVquBoSdYFreVa4+S184OXm5Qrfqp3R3DXGKcru/cMMdpa/dYlY/ADBumSf
PX6kRgnm96bU9CIp0AwvpDuDZMS4VrRPh45ngNH7OLdsHMaD8howA22REcXEwbYm
NzktCXO37yOnRVLzA3TV5GuNc3LHF8y6PBpu/BKkeabVXKoH3OS8mvrd2GrsMIXX
9qQz53O5SHa5FqKixn4NdSHlE3BBBQPWUY0P2UyiGlWHhGlM6CqFbCSxDYMxJbok
HTy17a1xzIv9TIfpvpZcdfh7ZLwOgL8z1/1+ctBZdSEvQdI5lpHtov6FOYjb4K2P
8dyU3RWqq7gk8jje+vQQX6WL6tDipQcdpSpxyI7mQbkDgtDU6B9IJ8A=
-----END CERTIFICATE-----
Certificate:
    Data:
        Version: 3 (0x2)
        Serial Number: 14850318398483021957 (0xce16ede72f074085)
    Signature Algorithm: sha256WithRSAEncryption
        Issuer: C=US, O=WFA Hotspot 2.0, CN=Hotspot 2.0 Trust Root CA - 99
        Validity
            Not Before: Mar 26 20:04:31 2015 GMT
            Not After : Mar 25 20:04:31 2025 GMT
        Subject: C=FI, O=ben-ota-2.lanforge.local, CN=Hotspot 2.0 Intermediate CA - 99
        Subject Public Key Info:
            Public Key Algorithm: rsaEncryption
                Public-Key: (2048 bit)
                Modulus:
                    00:dd:f8:b1:35:f1:28:4b:6a:37:bd:34:1a:b2:57:
                    b8:74:d9:d0:8e:76:75:9f:c4:e1:65:00:79:f2:10:
                    2f:47:5a:3c:d0:84:59:ec:2c:e7:0f:18:f3:22:35:
                    3e:06:5b:bb:ab:04:41:fb:86:70:6a:4b:63:5d:17:
                    2f:a3:aa:36:b0:f8:78:6f:8d:62:1e:06:a3:8c:8b:
                    2f:ea:dd:04:46:e7:36:08:ff:60:29:2f:c9:ab:cf:
                    69:50:cb:27:2c:36:3b:8c:9f:a1:ba:9c:2f:74:9f:
                    58:bd:43:9e:6f:23:cb:ad:41:f8:c7:ba:57:ef:6d:
                    42:53:2e:e4:55:ff:ab:b8:9b:de:b3:ac:eb:d2:1f:
                    ab:e0:33:9b:e5:ee:93:a2:bc:49:37:85:94:c7:22:
                    b3:7e:bb:22:09:f8:4f:32:82:5b:90:e4:cd:4f:f9:
                    5f:cf:d7:12:86:e2:0d:06:11:ea:98:96:dd:0f:3f:
                    22:e1:f7:c7:14:89:00:11:39:94:6f:75:3f:0b:51:
                    ed:61:c8:8f:66:fa:2f:6d:fa:ea:f4:5f:e5:e9:69:
                    9a:c6:7d:e1:86:ea:b8:58:0d:ac:b1:d3:e5:d9:f8:
                    bb:c0:34:92:16:58:43:bc:e9:55:2b:78:12:bb:5b:
                    61:17:37:4e:10:54:87:2d:6a:3f:09:09:5d:c0:8f:
                    ec:c9
                Exponent: 65537 (0x10001)
        X509v3 extensions:
            X509v3 Subject Key Identifier:
                DB:8D:71:CC:CC:14:6C:52:39:B7:E7:9A:39:00:A0:7D:10:5D:DB:D5
            X509v3 Authority Key Identifier:
                keyid:29:57:73:89:D7:81:9D:D7:26:D2:80:FF:CC:CE:9C:6C:DC:C5:DE:EF

            X509v3 Basic Constraints: critical
                CA:TRUE, pathlen:0
            X509v3 Key Usage: critical
                Certificate Sign, CRL Sign
            Authority Information Access:
                OCSP - URI:http://ocsp.ben-ota-2.lanforge.local:8888/

    Signature Algorithm: sha256WithRSAEncryption
         72:08:83:27:4b:f6:f0:2b:76:7e:4d:c2:18:d3:cd:44:ed:51:
         2d:0a:b5:bd:68:74:8f:e8:b6:a9:a7:f0:91:f5:11:77:d0:46:
         04:28:75:85:8a:e8:a2:ef:c9:67:dd:07:aa:16:b1:0a:74:b9:
         b7:09:d4:f5:7f:e4:fb:db:b5:7d:6c:de:83:c7:4a:dc:ee:fe:
         f7:90:fa:33:56:26:61:51:79:51:a1:c4:fe:ff:4f:09:e5:b0:
         20:10:1b:ee:ee:f0:83:2e:ee:0c:d5:5d:6e:ec:10:a2:f8:93:
         ce:1d:30:21:c3:ac:04:85:d8:fa:6e:46:56:1f:b8:18:2b:fd:
         30:95:69:bd:15:6b:d1:ce:83:f5:fa:ec:1b:f7:6c:73:54:29:
         36:bd:cd:1f:19:3f:45:d2:d6:25:ce:e8:15:3e:0d:b3:43:df:
         3e:30:d2:64:f0:15:0b:71:c7:5e:d4:29:cd:c1:14:b8:14:96:
         9b:3c:39:77:8e:8a:b2:5c:26:2d:31:a8:37:75:5a:55:cd:b7:
         c7:39:5f:50:32:42:19:b7:6b:d9:a5:26:a2:ef:eb:75:72:8e:
         6d:6a:94:12:8b:82:46:34:8b:c4:00:97:74:84:66:e1:9a:89:
         bb:a6:e0:87:37:64:ed:46:07:40:9b:00:fe:26:75:7d:5a:95:
         de:6f:0b:b1:bb:30:96:17:f5:d7:78:11:4e:c7:06:7a:cd:1d:
         08:78:b8:cd:19:46:41:f7:e9:93:8a:e7:bf:79:18:57:85:bf:
         92:78:3c:a0:6d:3b:b6:c9:4d:14:1f:92:9c:0e:36:be:cf:2e:
         f1:59:ce:e5:f1:82:63:5c:34:7d:20:b9:cc:66:a2:f7:57:95:
         22:06:b4:e3:e9:13:e0:ad:bc:a0:2f:0a:ec:0e:b8:78:4b:0e:
         8f:ff:eb:65:ce:da:17:32:16:3d:c6:8c:6b:00:91:08:9e:b3:
         e9:2b:a1:a3:f5:48:7d:5e:d8:db:7b:c5:ea:8b:fd:9f:5f:18:
         85:88:3c:9c:cd:02:9f:3e:3c:c0:50:9a:96:cb:29:ab:7b:a1:
         17:56:c4:da:dd:c1:37:85:5f:f7:fc:34:c2:c5:27:9f:f8:67:
         25:ba:14:d9:6f:70:a5:d4:8a:59:03:e8:9e:1e:97:9a:38:38:
         14:99:ff:7a:d2:34:48:19:63:c4:8f:9f:cf:18:f8:9e:49:a6:
         82:86:76:d7:12:a1:62:b3:20:86:2c:50:2e:60:bd:ae:86:ed:
         f5:18:83:8f:04:8e:9c:d7:f4:4d:6b:47:bf:00:c9:c1:5d:f1:
         db:60:17:ee:03:ee:e2:b3:f8:3c:f8:72:fd:0e:14:0b:d2:70:
         2f:c4:82:5a:2d:ff:27:5f
-----BEGIN CERTIFICATE-----
MIIE3jCCAsagAwIBAgIJAM4W7ecvB0CFMA0GCSqGSIb3DQEBCwUAMFAxCzAJBgNV
BAYTAlVTMRgwFgYDVQQKDA9XRkEgSG90c3BvdCAyLjAxJzAlBgNVBAMMHkhvdHNw
b3QgMi4wIFRydXN0IFJvb3QgQ0EgLSA5OTAeFw0xNTAzMjYyMDA0MzFaFw0yNTAz
MjUyMDA0MzFaMFsxCzAJBgNVBAYTAkZJMSEwHwYDVQQKDBhiZW4tb3RhLTIubGFu
Zm9yZ2UubG9jYWwxKTAnBgNVBAMMIEhvdHNwb3QgMi4wIEludGVybWVkaWF0ZSBD
QSAtIDk5MIIBIjANBgkqhkiG9w0BAQEFAAOCAQ8AMIIBCgKCAQEA3fixNfEoS2o3
vTQasle4dNnQjnZ1n8ThZQB58hAvR1o80IRZ7CznDxjzIjU+Blu7qwRB+4Zwaktj
XRcvo6o2sPh4b41iHgajjIsv6t0ERuc2CP9gKS/Jq89pUMsnLDY7jJ+hupwvdJ9Y
vUOebyPLrUH4x7pX721CUy7kVf+ruJves6zr0h+r4DOb5e6TorxJN4WUxyKzfrsi
CfhPMoJbkOTNT/lfz9cShuINBhHqmJbdDz8i4ffHFIkAETmUb3U/C1HtYciPZvov
bfrq9F/l6Wmaxn3hhuq4WA2ssdPl2fi7wDSSFlhDvOlVK3gSu1thFzdOEFSHLWo/
CQldwI/syQIDAQABo4GvMIGsMB0GA1UdDgQWBBTbjXHMzBRsUjm355o5AKB9EF3b
1TAfBgNVHSMEGDAWgBQpV3OJ14Gd1ybSgP/Mzpxs3MXe7zASBgNVHRMBAf8ECDAG
AQH/AgEAMA4GA1UdDwEB/wQEAwIBBjBGBggrBgEFBQcBAQQ6MDgwNgYIKwYBBQUH
MAGGKmh0dHA6Ly9vY3NwLmJlbi1vdGEtMi5sYW5mb3JnZS5sb2NhbDo4ODg4LzAN
BgkqhkiG9w0BAQsFAAOCAgEAcgiDJ0v28Ct2fk3CGNPNRO1RLQq1vWh0j+i2qafw
kfURd9BGBCh1hYroou/JZ90HqhaxCnS5twnU9X/k+9u1fWzeg8dK3O7+95D6M1Ym
YVF5UaHE/v9PCeWwIBAb7u7wgy7uDNVdbuwQoviTzh0wIcOsBIXY+m5GVh+4GCv9
MJVpvRVr0c6D9frsG/dsc1QpNr3NHxk/RdLWJc7oFT4Ns0PfPjDSZPAVC3HHXtQp
zcEUuBSWmzw5d46KslwmLTGoN3VaVc23xzlfUDJCGbdr2aUmou/rdXKObWqUEouC
RjSLxACXdIRm4ZqJu6bghzdk7UYHQJsA/iZ1fVqV3m8Lsbswlhf113gRTscGes0d
CHi4zRlGQffpk4rnv3kYV4W/kng8oG07tslNFB+SnA42vs8u8VnO5fGCY1w0fSC5
zGai91eVIga04+kT4K28oC8K7A64eEsOj//rZc7aFzIWPcaMawCRCJ6z6Suho/VI
fV7Y23vF6ov9n18YhYg8nM0Cnz48wFCalsspq3uhF1bE2t3BN4Vf9/w0wsUnn/hn
JboU2W9wpdSKWQPonh6Xmjg4FJn/etI0SBljxI+fzxj4nkmmgoZ21xKhYrMghixQ
LmC9robt9RiDjwSOnNf0TWtHvwDJwV3x22AX7gPu4rP4PPhy/Q4UC9JwL8SCWi3/
J18=
-----END CERTIFICATE-----
