Certificate:
    Data:
        Version: 3 (0x2)
        Serial Number: 14850318398483021958 (0xce16ede72f074086)
    Signature Algorithm: sha256WithRSAEncryption
        Issuer: C=FI, O=ben-ota-2.lanforge.local, CN=Hotspot 2.0 Intermediate CA - 99
        Validity
            Not Before: Mar 26 20:04:32 2015 GMT
            Not After : Mar 25 20:04:32 2017 GMT
        Subject: C=FI, O=ben-ota-2.lanforge.local, CN=ocsp.ben-ota-2.lanforge.local
        Subject Public Key Info:
            Public Key Algorithm: rsaEncryption
                Public-Key: (2048 bit)
                Modulus:
                    00:bb:98:98:e3:f4:c1:75:6b:c6:82:e5:2e:ea:ca:
                    8f:99:87:85:4b:a9:78:53:ba:77:e1:0a:82:fd:a3:
                    a4:29:8c:cb:73:91:a6:00:82:f7:94:0e:6b:da:cf:
                    ef:73:70:f7:a3:19:2e:97:2b:aa:db:3a:b2:98:f8:
                    e5:7e:af:ed:66:27:7f:d6:40:53:37:d0:45:ba:dc:
                    2b:e6:7f:67:d6:16:0d:72:82:2e:14:27:30:af:bf:
                    d7:0f:cd:f5:b3:be:81:7c:9f:91:57:c0:2b:2b:b9:
                    fb:ee:6d:df:50:8e:ea:4a:5b:41:46:5b:fe:9c:19:
                    08:91:5e:8a:7f:53:67:fc:2f:b4:55:58:7c:82:35:
                    9f:a5:c6:97:8f:f4:a8:2a:d7:a6:e2:ea:7e:be:90:
                    1c:1e:2a:b3:38:b7:5a:f6:67:ad:de:c9:3f:e5:d7:
                    a5:44:33:73:02:26:b8:78:44:75:db:49:55:08:a3:
                    e6:d6:c5:4c:6e:20:38:0a:99:70:6c:88:d0:86:3f:
                    ac:d9:15:95:cb:09:20:0a:62:4a:39:8f:14:36:d9:
                    03:8d:70:f0:73:86:d7:3f:88:3c:6c:70:cd:22:83:
                    95:ed:74:0f:1a:39:5c:c5:b8:48:a5:31:db:6d:ad:
                    26:8f:5b:24:b9:8c:04:9c:4b:63:db:3c:a9:25:ba:
                    65:15
                Exponent: 65537 (0x10001)
        X509v3 extensions:
            X509v3 Basic Constraints:
                CA:FALSE
            X509v3 Key Usage:
                Digital Signature, Non Repudiation, Key Encipherment
            X509v3 Extended Key Usage:
                OCSP Signing
    Signature Algorithm: sha256WithRSAEncryption
         85:2c:d9:ae:60:ad:4c:1b:2f:1b:49:2d:d0:1e:f8:f3:4a:aa:
         d9:31:21:db:ff:3f:c5:c8:07:29:19:dd:26:8b:aa:4d:22:a5:
         6e:75:57:18:0f:fa:f4:22:fd:82:48:55:4c:ac:11:d7:27:86:
         bd:3f:04:e8:b9:fa:72:23:35:56:f4:4c:19:2c:df:e1:eb:bf:
         72:fe:55:b4:4b:33:9e:9b:4c:64:cc:03:9e:cc:1a:21:6e:60:
         6e:fe:ea:89:22:ed:7c:b3:6c:a5:a2:16:c8:72:1c:30:7b:87:
         60:d9:80:57:d2:a3:63:87:3a:e8:17:34:31:b4:c1:d3:a3:05:
         0a:98:d6:4d:a2:bb:6a:22:0b:be:6b:45:33:45:85:02:32:64:
         18:51:24:c2:e0:6c:47:78:36:8a:08:16:21:45:f8:99:9a:af:
         d8:de:48:04:13:d1:79:ce:3a:29:05:68:aa:fb:d7:67:c9:73:
         a9:89:1d:ec:c0:9d:e3:9e:58:11:ed:6e:d5:be:96:ae:40:0d:
         12:c9:60:f1:a6:3e:0d:b0:5c:b4:7a:2b:bc:e8:63:aa:3e:9c:
         4e:80:aa:85:e0:b9:73:62:76:95:d4:10:44:b3:46:dd:2d:ea:
         b6:2e:fd:f8:94:78:40:6e:6a:cc:d0:ab:31:16:6b:5c:a3:2e:
         aa:4d:c7:22
-----BEGIN CERTIFICATE-----
MIIDZTCCAk2gAwIBAgIJAM4W7ecvB0CGMA0GCSqGSIb3DQEBCwUAMFsxCzAJBgNV
BAYTAkZJMSEwHwYDVQQKDBhiZW4tb3RhLTIubGFuZm9yZ2UubG9jYWwxKTAnBgNV
BAMMIEhvdHNwb3QgMi4wIEludGVybWVkaWF0ZSBDQSAtIDk5MB4XDTE1MDMyNjIw
MDQzMloXDTE3MDMyNTIwMDQzMlowWDELMAkGA1UEBhMCRkkxITAfBgNVBAoMGGJl
bi1vdGEtMi5sYW5mb3JnZS5sb2NhbDEmMCQGA1UEAwwdb2NzcC5iZW4tb3RhLTIu
bGFuZm9yZ2UubG9jYWwwggEiMA0GCSqGSIb3DQEBAQUAA4IBDwAwggEKAoIBAQC7
mJjj9MF1a8aC5S7qyo+Zh4VLqXhTunfhCoL9o6QpjMtzkaYAgveUDmvaz+9zcPej
GS6XK6rbOrKY+OV+r+1mJ3/WQFM30EW63Cvmf2fWFg1ygi4UJzCvv9cPzfWzvoF8
n5FXwCsrufvubd9QjupKW0FGW/6cGQiRXop/U2f8L7RVWHyCNZ+lxpeP9Kgq16bi
6n6+kBweKrM4t1r2Z63eyT/l16VEM3MCJrh4RHXbSVUIo+bWxUxuIDgKmXBsiNCG
P6zZFZXLCSAKYko5jxQ22QONcPBzhtc/iDxscM0ig5XtdA8aOVzFuEilMdttrSaP
WyS5jAScS2PbPKklumUVAgMBAAGjLzAtMAkGA1UdEwQCMAAwCwYDVR0PBAQDAgXg
MBMGA1UdJQQMMAoGCCsGAQUFBwMJMA0GCSqGSIb3DQEBCwUAA4IBAQCFLNmuYK1M
Gy8bSS3QHvjzSqrZMSHb/z/FyAcpGd0mi6pNIqVudVcYD/r0Iv2CSFVMrBHXJ4a9
PwToufpyIzVW9EwZLN/h679y/lW0SzOem0xkzAOezBohbmBu/uqJIu18s2ylohbI
chwwe4dg2YBX0qNjhzroFzQxtMHTowUKmNZNortqIgu+a0UzRYUCMmQYUSTC4GxH
eDaKCBYhRfiZmq/Y3kgEE9F5zjopBWiq+9dnyXOpiR3swJ3jnlgR7W7VvpauQA0S
yWDxpj4NsFy0eiu86GOqPpxOgKqF4LlzYnaV1BBEs0bdLeq2Lv34lHhAbmrM0Ksx
Fmtcoy6qTcci
-----END CERTIFICATE-----
