Certificate:
    Data:
        Version: 3 (0x2)
        Serial Number: 14850318398483021960 (0xce16ede72f074088)
    Signature Algorithm: sha256WithRSAEncryption
        Issuer: C=FI, O=ben-ota-2.lanforge.local, CN=Hotspot 2.0 Intermediate CA - 99
        Validity
            Not Before: Mar 26 20:04:32 2015 GMT
            Not After : Mar 25 20:04:32 2017 GMT
        Subject: C=FI, O=ben-ota-2.lanforge.local, CN=osu-client.ben-ota-2.lanforge.local
        Subject Public Key Info:
            Public Key Algorithm: rsaEncryption
                Public-Key: (2048 bit)
                Modulus:
                    00:c5:8c:3f:9e:9d:41:a4:18:2d:c1:5c:53:5a:6d:
                    b8:86:51:4d:ee:57:f7:03:09:44:d5:9e:43:97:48:
                    e9:17:87:2f:87:93:63:c9:fc:69:6c:d7:ca:65:a6:
                    fb:d1:95:82:1e:ce:2f:69:8d:05:cb:45:78:f9:aa:
                    6f:d8:23:db:86:35:66:86:32:78:30:bf:0d:68:48:
                    25:d9:2b:c4:db:0c:de:50:3a:1a:3d:ba:2b:64:13:
                    d1:c6:56:c3:4f:b2:b5:0d:89:9b:1a:04:80:56:09:
                    a7:44:2f:1f:76:79:fb:59:6c:b2:18:8f:f9:ec:aa:
                    75:f6:ef:78:3a:0f:7f:f0:8a:11:b1:18:37:b9:3f:
                    6d:2b:54:cb:6e:38:61:1f:1c:41:af:2e:57:a0:da:
                    68:f5:9f:51:8e:7d:30:48:b0:58:ff:07:ba:c7:a2:
                    66:61:1f:2b:54:8b:1d:15:e2:e6:75:4c:ff:75:a3:
                    07:c9:d4:eb:40:35:f9:3a:6b:96:89:1a:5a:29:5d:
                    a9:75:c9:ab:96:b6:94:b2:39:19:b8:39:7d:b9:5f:
                    51:45:e6:9a:4c:0c:6a:04:8f:7a:03:44:46:df:6e:
                    fd:ec:02:51:c4:63:f5:f9:15:1f:f8:d5:e9:06:1a:
                    1d:1b:3b:a1:6d:2c:cd:44:5d:88:e6:b2:60:d1:7b:
                    1a:87
                Exponent: 65537 (0x10001)
        X509v3 extensions:
            X509v3 Basic Constraints:
                CA:FALSE
            X509v3 Subject Key Identifier:
                DC:E8:B8:A6:41:DE:FD:CA:6C:5A:87:00:C5:F5:20:D5:9A:CA:B6:98
            X509v3 Authority Key Identifier:
                keyid:DB:8D:71:CC:CC:14:6C:52:39:B7:E7:9A:39:00:A0:7D:10:5D:DB:D5

            Authority Information Access:
                OCSP - URI:http://ocsp.ben-ota-2.lanforge.local:8888/

            X509v3 Extended Key Usage:
                TLS Web Client Authentication
    Signature Algorithm: sha256WithRSAEncryption
         6c:05:26:2d:fa:a5:af:74:2a:f4:d6:a7:d0:c8:52:0c:bc:5f:
         87:1c:13:9d:83:94:84:ef:1f:b6:60:95:ca:dc:d4:e1:dc:3b:
         fb:6e:22:1d:77:72:b2:51:14:a4:47:7d:e7:d5:41:b4:fd:ef:
         51:2d:cf:6f:95:3a:23:24:1b:60:19:54:bf:3a:8e:ad:a0:ae:
         75:69:c6:dd:26:ce:a4:cd:6e:bc:77:fe:e3:ef:47:a1:34:71:
         53:be:f5:ef:36:62:7e:a5:30:ba:39:22:a5:56:92:10:ea:15:
         7d:9e:9f:d6:b8:3c:d4:f8:b2:a7:60:eb:a7:83:ce:d8:2d:da:
         33:59:a8:25:26:72:11:85:ca:c9:11:e0:fa:20:34:21:83:1c:
         8a:cd:c2:08:02:74:f4:3d:45:d0:f4:8d:c1:ee:56:61:dc:b2:
         d2:69:18:5f:9e:d3:3c:7b:05:b1:d0:9c:23:86:c6:ef:42:99:
         98:3d:a0:37:8f:00:db:c3:e2:0e:55:55:15:12:a6:ad:84:cd:
         07:98:73:cd:2e:90:00:21:17:b3:a8:a2:71:24:1b:4e:37:33:
         8d:70:7e:0b:34:8d:62:bb:f1:88:d3:ca:a9:87:fb:1b:11:30:
         1d:a6:1a:69:26:be:69:2a:c6:9e:c5:38:3b:54:20:1c:e6:e2:
         a7:6c:86:a0
-----BEGIN CERTIFICATE-----
MIID6DCCAtCgAwIBAgIJAM4W7ecvB0CIMA0GCSqGSIb3DQEBCwUAMFsxCzAJBgNV
BAYTAkZJMSEwHwYDVQQKDBhiZW4tb3RhLTIubGFuZm9yZ2UubG9jYWwxKTAnBgNV
BAMMIEhvdHNwb3QgMi4wIEludGVybWVkaWF0ZSBDQSAtIDk5MB4XDTE1MDMyNjIw
MDQzMloXDTE3MDMyNTIwMDQzMlowXjELMAkGA1UEBhMCRkkxITAfBgNVBAoMGGJl
bi1vdGEtMi5sYW5mb3JnZS5sb2NhbDEsMCoGA1UEAwwjb3N1LWNsaWVudC5iZW4t
b3RhLTIubGFuZm9yZ2UubG9jYWwwggEiMA0GCSqGSIb3DQEBAQUAA4IBDwAwggEK
AoIBAQDFjD+enUGkGC3BXFNabbiGUU3uV/cDCUTVnkOXSOkXhy+Hk2PJ/Gls18pl
pvvRlYIezi9pjQXLRXj5qm/YI9uGNWaGMngwvw1oSCXZK8TbDN5QOho9uitkE9HG
VsNPsrUNiZsaBIBWCadELx92eftZbLIYj/nsqnX273g6D3/wihGxGDe5P20rVMtu
OGEfHEGvLleg2mj1n1GOfTBIsFj/B7rHomZhHytUix0V4uZ1TP91owfJ1OtANfk6
a5aJGlopXal1yauWtpSyORm4OX25X1FF5ppMDGoEj3oDREbfbv3sAlHEY/X5FR/4
1ekGGh0bO6FtLM1EXYjmsmDRexqHAgMBAAGjgaswgagwCQYDVR0TBAIwADAdBgNV
HQ4EFgQU3Oi4pkHe/cpsWocAxfUg1ZrKtpgwHwYDVR0jBBgwFoAU241xzMwUbFI5
t+eaOQCgfRBd29UwRgYIKwYBBQUHAQEEOjA4MDYGCCsGAQUFBzABhipodHRwOi8v
b2NzcC5iZW4tb3RhLTIubGFuZm9yZ2UubG9jYWw6ODg4OC8wEwYDVR0lBAwwCgYI
KwYBBQUHAwIwDQYJKoZIhvcNAQELBQADggEBAGwFJi36pa90KvTWp9DIUgy8X4cc
E52DlITvH7Zglcrc1OHcO/tuIh13crJRFKRHfefVQbT971Etz2+VOiMkG2AZVL86
jq2grnVpxt0mzqTNbrx3/uPvR6E0cVO+9e82Yn6lMLo5IqVWkhDqFX2en9a4PNT4
sqdg66eDztgt2jNZqCUmchGFyskR4PogNCGDHIrNwggCdPQ9RdD0jcHuVmHcstJp
GF+e0zx7BbHQnCOGxu9CmZg9oDePANvD4g5VVRUSpq2EzQeYc80ukAAhF7OoonEk
G043M41wfgs0jWK78YjTyqmH+xsRMB2mGmkmvmkqxp7FODtUIBzm4qdshqA=
-----END CERTIFICATE-----
