Certificate:
    Data:
        Version: 3 (0x2)
        Serial Number: 15706494745041001294 (0xd9f8adc108b55b4e)
    Signature Algorithm: sha256WithRSAEncryption
        Issuer: C=US, O=WFA Hotspot 2.0, CN=Hotspot 2.0 Trust Root CA - 99
        Validity
            Not Before: Mar 26 20:04:31 2015 GMT
            Not After : Mar 25 20:04:31 2045 GMT
        Subject: C=US, O=WFA Hotspot 2.0, CN=Hotspot 2.0 Trust Root CA - 99
        Subject Public Key Info:
            Public Key Algorithm: rsaEncryption
                Public-Key: (4096 bit)
                Modulus:
                    00:fa:c2:0e:1b:6f:3f:03:83:a8:fd:d8:2e:fa:17:
                    9b:29:6c:01:72:46:6f:64:e6:b9:38:03:a7:9c:64:
                    84:5c:16:25:8c:fb:61:82:1e:58:25:49:0b:1c:97:
                    b1:df:c7:50:97:a3:11:bb:46:12:b5:95:0f:25:7c:
                    9a:a5:f9:4c:6e:ab:c6:6d:56:50:ed:b3:5d:fc:80:
                    a7:28:c4:45:65:17:5f:ee:10:5f:9c:89:b6:9e:a6:
                    9c:5b:12:11:ce:b9:b5:00:1b:26:ef:fd:f0:45:f3:
                    10:4d:9b:cd:03:da:aa:df:93:43:9b:1e:14:7e:d6:
                    ec:d5:55:c2:06:86:a9:91:da:7a:da:e4:29:2a:0b:
                    03:89:71:6a:63:bd:51:b4:15:8b:77:45:62:01:16:
                    21:ba:c6:ea:13:aa:14:9b:5f:fb:f5:d8:ee:45:40:
                    1b:ba:c2:b2:76:56:7a:3a:10:1a:67:ec:92:74:c1:
                    09:37:d2:f8:2f:4b:98:f9:28:34:af:96:04:e3:74:
                    65:e6:3d:8e:9e:dc:10:2f:3a:67:86:07:47:42:b0:
                    f0:69:4e:88:a1:aa:f9:aa:40:4b:d5:91:ba:c2:71:
                    29:b5:77:82:ea:bd:71:6e:5a:42:92:f9:0e:ea:49:
                    e9:e1:50:7d:75:d2:62:ec:06:6c:de:66:a0:18:0f:
                    8e:b6:76:29:80:03:8c:dd:d5:1b:7b:48:2d:f4:08:
                    4f:83:f6:4e:69:1a:06:fa:e1:e5:80:0f:0c:c2:09:
                    a4:fe:b9:75:9b:6e:1b:4f:14:c8:d1:7d:62:9b:7e:
                    96:a8:45:c7:30:41:15:d1:52:92:55:31:49:1b:e0:
                    31:1d:0d:0d:86:76:38:f3:0b:99:d0:26:b2:bb:56:
                    3d:6e:42:01:fd:ac:47:5a:fc:6d:bd:85:75:48:a4:
                    83:37:48:c3:18:61:b3:61:13:07:c6:0f:16:e0:40:
                    b3:8c:86:fd:d7:9a:7c:be:77:40:05:87:67:be:e9:
                    29:e1:f9:20:5e:1d:e5:7e:6b:40:42:be:3b:5a:99:
                    84:84:5f:1d:f9:c7:a4:99:ae:3f:a3:76:5d:45:df:
                    92:d6:c9:3c:da:94:61:b8:05:da:ca:07:c3:2a:bc:
                    16:52:2a:0c:27:68:79:b2:76:e5:e1:b1:f7:ba:6c:
                    a3:40:37:86:81:4b:50:87:ec:75:20:3b:e6:0a:2f:
                    51:4d:1e:d8:f8:83:b5:07:78:48:c9:9a:af:e1:fe:
                    8f:5a:f4:82:86:b2:3b:73:a6:39:9a:da:89:ea:32:
                    10:1b:e3:9f:19:33:d9:a4:5e:7e:ff:57:bb:8a:68:
                    98:b2:d6:08:17:68:d6:44:23:ef:6d:e3:db:ab:b8:
                    94:51:55
                Exponent: 65537 (0x10001)
        X509v3 extensions:
            X509v3 Subject Key Identifier:
                29:57:73:89:D7:81:9D:D7:26:D2:80:FF:CC:CE:9C:6C:DC:C5:DE:EF
            X509v3 Basic Constraints: critical
                CA:TRUE
            X509v3 Key Usage: critical
                Certificate Sign, CRL Sign
    Signature Algorithm: sha256WithRSAEncryption
         f5:07:1d:55:80:6f:50:c2:54:f1:d5:e2:bb:d1:28:7a:d0:75:
         b2:18:55:fb:0a:99:6c:09:2b:1c:b5:f2:23:10:5a:93:09:88:
         ec:53:a2:71:e4:6a:b1:60:48:a1:d6:97:19:59:a1:30:dd:8e:
         69:8e:96:d8:b3:cb:af:f0:6c:7b:b2:c9:21:17:e9:ee:67:77:
         68:f5:5f:9f:52:63:27:c6:72:20:b4:a5:c1:15:9c:97:af:0b:
         82:83:c7:96:2c:25:34:c2:91:ba:fc:37:8c:56:94:f1:89:b6:
         1c:6f:66:c6:56:c6:3c:e2:26:f9:49:6c:4d:fe:42:12:c3:5c:
         5b:c9:5a:43:dd:73:1c:dd:2b:91:a7:be:03:5f:68:63:2d:c8:
         03:b4:5a:6e:0b:a3:c6:b8:47:5b:db:b6:c7:71:8f:07:b0:82:
         3f:b8:ec:8e:d4:a0:11:ec:b1:de:ca:8a:bf:2f:2b:93:d3:73:
         7d:06:4c:cd:08:6e:5f:92:41:32:ea:38:b7:75:89:9b:8e:a9:
         5e:e4:7b:79:5d:e4:4c:e5:c2:28:e3:c8:6a:e2:45:bc:04:77:
         69:90:82:01:cc:6a:5a:0a:99:c2:c2:96:70:56:c7:db:89:ac:
         50:b5:6a:b8:1a:12:75:81:6b:79:56:b8:f9:2d:7c:e0:e5:e6:
         e5:0a:df:aa:9d:d1:dc:35:c6:29:ca:ee:fd:c3:0c:76:96:bf:
         75:89:58:fc:00:c1:ba:64:9f:3d:7e:a4:46:09:e6:f7:a6:d4:
         f4:22:29:d0:0c:2f:a4:3b:83:64:c4:b8:56:b4:4f:87:8e:67:
         80:d1:fb:38:b7:6c:1c:c6:83:f2:1a:30:03:6d:91:11:c5:c4:
         c1:b6:26:37:39:2d:09:73:b7:ef:23:a7:45:52:f3:03:74:d5:
         e4:6b:8d:73:72:c7:17:cc:ba:3c:1a:6e:fc:12:a4:79:a6:d5:
         5c:aa:07:dc:e4:bc:9a:fa:dd:d8:6a:ec:30:85:d7:f6:a4:33:
         e7:73:b9:48:76:b9:16:a2:a2:c6:7e:0d:75:21:e5:13:70:41:
         05:03:d6:51:8d:0f:d9:4c:a2:1a:55:87:84:69:4c:e8:2a:85:
         6c:24:b1:0d:83:31:25:ba:24:1d:3c:b5:ed:ad:71:cc:8b:fd:
         4c:87:e9:be:96:5c:75:f8:7b:64:bc:0e:80:bf:33:d7:fd:7e:
         72:d0:59:75:21:2f:41:d2:39:96:91:ed:a2:fe:85:39:88:db:
         e0:ad:8f:f1:dc:94:dd:15:aa:ab:b8:24:f2:38:de:fa:f4:10:
         5f:a5:8b:ea:d0:e2:a5:07:1d:a5:2a:71:c8:8e:e6:41:b9:03:
         82:d0:d4:e8:1f:48:27:c0
-----BEGIN CERTIFICATE-----
MIIFZTCCA02gAwIBAgIJANn4rcEItVtOMA0GCSqGSIb3DQEBCwUAMFAxCzAJBgNV
BAYTAlVTMRgwFgYDVQQKDA9XRkEgSG90c3BvdCAyLjAxJzAlBgNVBAMMHkhvdHNw
b3QgMi4wIFRydXN0IFJvb3QgQ0EgLSA5OTAeFw0xNTAzMjYyMDA0MzFaFw00NTAz
MjUyMDA0MzFaMFAxCzAJBgNVBAYTAlVTMRgwFgYDVQQKDA9XRkEgSG90c3BvdCAy
LjAxJzAlBgNVBAMMHkhvdHNwb3QgMi4wIFRydXN0IFJvb3QgQ0EgLSA5OTCCAiIw
DQYJKoZIhvcNAQEBBQADggIPADCCAgoCggIBAPrCDhtvPwODqP3YLvoXmylsAXJG
b2TmuTgDp5xkhFwWJYz7YYIeWCVJCxyXsd/HUJejEbtGErWVDyV8mqX5TG6rxm1W
UO2zXfyApyjERWUXX+4QX5yJtp6mnFsSEc65tQAbJu/98EXzEE2bzQPaqt+TQ5se
FH7W7NVVwgaGqZHaetrkKSoLA4lxamO9UbQVi3dFYgEWIbrG6hOqFJtf+/XY7kVA
G7rCsnZWejoQGmfsknTBCTfS+C9LmPkoNK+WBON0ZeY9jp7cEC86Z4YHR0Kw8GlO
iKGq+apAS9WRusJxKbV3guq9cW5aQpL5DupJ6eFQfXXSYuwGbN5moBgPjrZ2KYAD
jN3VG3tILfQIT4P2TmkaBvrh5YAPDMIJpP65dZtuG08UyNF9Ypt+lqhFxzBBFdFS
klUxSRvgMR0NDYZ2OPMLmdAmsrtWPW5CAf2sR1r8bb2FdUikgzdIwxhhs2ETB8YP
FuBAs4yG/deafL53QAWHZ77pKeH5IF4d5X5rQEK+O1qZhIRfHfnHpJmuP6N2XUXf
ktbJPNqUYbgF2soHwyq8FlIqDCdoebJ25eGx97pso0A3hoFLUIfsdSA75govUU0e
2PiDtQd4SMmar+H+j1r0goayO3OmOZraieoyEBvjnxkz2aRefv9Xu4pomLLWCBdo
1kQj723j26u4lFFVAgMBAAGjQjBAMB0GA1UdDgQWBBQpV3OJ14Gd1ybSgP/Mzpxs
3MXe7zAPBgNVHRMBAf8EBTADAQH/MA4GA1UdDwEB/wQEAwIBBjANBgkqhkiG9w0B
AQsFAAOCAgEA9QcdVYBvUMJU8dXiu9EoetB1shhV+wqZbAkrHLXyIxBakwmI7FOi
ceRqsWBIodaXGVmhMN2OaY6W2LPLr/Bse7LJIRfp7md3aPVfn1JjJ8ZyILSlwRWc
l68LgoPHliwlNMKRuvw3jFaU8Ym2HG9mxlbGPOIm+UlsTf5CEsNcW8laQ91zHN0r
kae+A19oYy3IA7RabgujxrhHW9u2x3GPB7CCP7jsjtSgEeyx3sqKvy8rk9NzfQZM
zQhuX5JBMuo4t3WJm46pXuR7eV3kTOXCKOPIauJFvAR3aZCCAcxqWgqZwsKWcFbH
24msULVquBoSdYFreVa4+S184OXm5Qrfqp3R3DXGKcru/cMMdpa/dYlY/ADBumSf
PX6kRgnm96bU9CIp0AwvpDuDZMS4VrRPh45ngNH7OLdsHMaD8howA22REcXEwbYm
NzktCXO37yOnRVLzA3TV5GuNc3LHF8y6PBpu/BKkeabVXKoH3OS8mvrd2GrsMIXX
9qQz53O5SHa5FqKixn4NdSHlE3BBBQPWUY0P2UyiGlWHhGlM6CqFbCSxDYMxJbok
HTy17a1xzIv9TIfpvpZcdfh7ZLwOgL8z1/1+ctBZdSEvQdI5lpHtov6FOYjb4K2P
8dyU3RWqq7gk8jje+vQQX6WL6tDipQcdpSpxyI7mQbkDgtDU6B9IJ8A=
-----END CERTIFICATE-----
