Certificate:
    Data:
        Version: 3 (0x2)
        Serial Number: 14850318398483021957 (0xce16ede72f074085)
    Signature Algorithm: sha256WithRSAEncryption
        Issuer: C=US, O=WFA Hotspot 2.0, CN=Hotspot 2.0 Trust Root CA - 99
        Validity
            Not Before: Mar 26 20:04:31 2015 GMT
            Not After : Mar 25 20:04:31 2025 GMT
        Subject: C=FI, O=ben-ota-2.lanforge.local, CN=Hotspot 2.0 Intermediate CA - 99
        Subject Public Key Info:
            Public Key Algorithm: rsaEncryption
                Public-Key: (2048 bit)
                Modulus:
                    00:dd:f8:b1:35:f1:28:4b:6a:37:bd:34:1a:b2:57:
                    b8:74:d9:d0:8e:76:75:9f:c4:e1:65:00:79:f2:10:
                    2f:47:5a:3c:d0:84:59:ec:2c:e7:0f:18:f3:22:35:
                    3e:06:5b:bb:ab:04:41:fb:86:70:6a:4b:63:5d:17:
                    2f:a3:aa:36:b0:f8:78:6f:8d:62:1e:06:a3:8c:8b:
                    2f:ea:dd:04:46:e7:36:08:ff:60:29:2f:c9:ab:cf:
                    69:50:cb:27:2c:36:3b:8c:9f:a1:ba:9c:2f:74:9f:
                    58:bd:43:9e:6f:23:cb:ad:41:f8:c7:ba:57:ef:6d:
                    42:53:2e:e4:55:ff:ab:b8:9b:de:b3:ac:eb:d2:1f:
                    ab:e0:33:9b:e5:ee:93:a2:bc:49:37:85:94:c7:22:
                    b3:7e:bb:22:09:f8:4f:32:82:5b:90:e4:cd:4f:f9:
                    5f:cf:d7:12:86:e2:0d:06:11:ea:98:96:dd:0f:3f:
                    22:e1:f7:c7:14:89:00:11:39:94:6f:75:3f:0b:51:
                    ed:61:c8:8f:66:fa:2f:6d:fa:ea:f4:5f:e5:e9:69:
                    9a:c6:7d:e1:86:ea:b8:58:0d:ac:b1:d3:e5:d9:f8:
                    bb:c0:34:92:16:58:43:bc:e9:55:2b:78:12:bb:5b:
                    61:17:37:4e:10:54:87:2d:6a:3f:09:09:5d:c0:8f:
                    ec:c9
                Exponent: 65537 (0x10001)
        X509v3 extensions:
            X509v3 Subject Key Identifier:
                DB:8D:71:CC:CC:14:6C:52:39:B7:E7:9A:39:00:A0:7D:10:5D:DB:D5
            X509v3 Authority Key Identifier:
                keyid:29:57:73:89:D7:81:9D:D7:26:D2:80:FF:CC:CE:9C:6C:DC:C5:DE:EF

            X509v3 Basic Constraints: critical
                CA:TRUE, pathlen:0
            X509v3 Key Usage: critical
                Certificate Sign, CRL Sign
            Authority Information Access:
                OCSP - URI:http://ocsp.ben-ota-2.lanforge.local:8888/

    Signature Algorithm: sha256WithRSAEncryption
         72:08:83:27:4b:f6:f0:2b:76:7e:4d:c2:18:d3:cd:44:ed:51:
         2d:0a:b5:bd:68:74:8f:e8:b6:a9:a7:f0:91:f5:11:77:d0:46:
         04:28:75:85:8a:e8:a2:ef:c9:67:dd:07:aa:16:b1:0a:74:b9:
         b7:09:d4:f5:7f:e4:fb:db:b5:7d:6c:de:83:c7:4a:dc:ee:fe:
         f7:90:fa:33:56:26:61:51:79:51:a1:c4:fe:ff:4f:09:e5:b0:
         20:10:1b:ee:ee:f0:83:2e:ee:0c:d5:5d:6e:ec:10:a2:f8:93:
         ce:1d:30:21:c3:ac:04:85:d8:fa:6e:46:56:1f:b8:18:2b:fd:
         30:95:69:bd:15:6b:d1:ce:83:f5:fa:ec:1b:f7:6c:73:54:29:
         36:bd:cd:1f:19:3f:45:d2:d6:25:ce:e8:15:3e:0d:b3:43:df:
         3e:30:d2:64:f0:15:0b:71:c7:5e:d4:29:cd:c1:14:b8:14:96:
         9b:3c:39:77:8e:8a:b2:5c:26:2d:31:a8:37:75:5a:55:cd:b7:
         c7:39:5f:50:32:42:19:b7:6b:d9:a5:26:a2:ef:eb:75:72:8e:
         6d:6a:94:12:8b:82:46:34:8b:c4:00:97:74:84:66:e1:9a:89:
         bb:a6:e0:87:37:64:ed:46:07:40:9b:00:fe:26:75:7d:5a:95:
         de:6f:0b:b1:bb:30:96:17:f5:d7:78:11:4e:c7:06:7a:cd:1d:
         08:78:b8:cd:19:46:41:f7:e9:93:8a:e7:bf:79:18:57:85:bf:
         92:78:3c:a0:6d:3b:b6:c9:4d:14:1f:92:9c:0e:36:be:cf:2e:
         f1:59:ce:e5:f1:82:63:5c:34:7d:20:b9:cc:66:a2:f7:57:95:
         22:06:b4:e3:e9:13:e0:ad:bc:a0:2f:0a:ec:0e:b8:78:4b:0e:
         8f:ff:eb:65:ce:da:17:32:16:3d:c6:8c:6b:00:91:08:9e:b3:
         e9:2b:a1:a3:f5:48:7d:5e:d8:db:7b:c5:ea:8b:fd:9f:5f:18:
         85:88:3c:9c:cd:02:9f:3e:3c:c0:50:9a:96:cb:29:ab:7b:a1:
         17:56:c4:da:dd:c1:37:85:5f:f7:fc:34:c2:c5:27:9f:f8:67:
         25:ba:14:d9:6f:70:a5:d4:8a:59:03:e8:9e:1e:97:9a:38:38:
         14:99:ff:7a:d2:34:48:19:63:c4:8f:9f:cf:18:f8:9e:49:a6:
         82:86:76:d7:12:a1:62:b3:20:86:2c:50:2e:60:bd:ae:86:ed:
         f5:18:83:8f:04:8e:9c:d7:f4:4d:6b:47:bf:00:c9:c1:5d:f1:
         db:60:17:ee:03:ee:e2:b3:f8:3c:f8:72:fd:0e:14:0b:d2:70:
         2f:c4:82:5a:2d:ff:27:5f
-----BEGIN CERTIFICATE-----
MIIE3jCCAsagAwIBAgIJAM4W7ecvB0CFMA0GCSqGSIb3DQEBCwUAMFAxCzAJBgNV
BAYTAlVTMRgwFgYDVQQKDA9XRkEgSG90c3BvdCAyLjAxJzAlBgNVBAMMHkhvdHNw
b3QgMi4wIFRydXN0IFJvb3QgQ0EgLSA5OTAeFw0xNTAzMjYyMDA0MzFaFw0yNTAz
MjUyMDA0MzFaMFsxCzAJBgNVBAYTAkZJMSEwHwYDVQQKDBhiZW4tb3RhLTIubGFu
Zm9yZ2UubG9jYWwxKTAnBgNVBAMMIEhvdHNwb3QgMi4wIEludGVybWVkaWF0ZSBD
QSAtIDk5MIIBIjANBgkqhkiG9w0BAQEFAAOCAQ8AMIIBCgKCAQEA3fixNfEoS2o3
vTQasle4dNnQjnZ1n8ThZQB58hAvR1o80IRZ7CznDxjzIjU+Blu7qwRB+4Zwaktj
XRcvo6o2sPh4b41iHgajjIsv6t0ERuc2CP9gKS/Jq89pUMsnLDY7jJ+hupwvdJ9Y
vUOebyPLrUH4x7pX721CUy7kVf+ruJves6zr0h+r4DOb5e6TorxJN4WUxyKzfrsi
CfhPMoJbkOTNT/lfz9cShuINBhHqmJbdDz8i4ffHFIkAETmUb3U/C1HtYciPZvov
bfrq9F/l6Wmaxn3hhuq4WA2ssdPl2fi7wDSSFlhDvOlVK3gSu1thFzdOEFSHLWo/
CQldwI/syQIDAQABo4GvMIGsMB0GA1UdDgQWBBTbjXHMzBRsUjm355o5AKB9EF3b
1TAfBgNVHSMEGDAWgBQpV3OJ14Gd1ybSgP/Mzpxs3MXe7zASBgNVHRMBAf8ECDAG
AQH/AgEAMA4GA1UdDwEB/wQEAwIBBjBGBggrBgEFBQcBAQQ6MDgwNgYIKwYBBQUH
MAGGKmh0dHA6Ly9vY3NwLmJlbi1vdGEtMi5sYW5mb3JnZS5sb2NhbDo4ODg4LzAN
BgkqhkiG9w0BAQsFAAOCAgEAcgiDJ0v28Ct2fk3CGNPNRO1RLQq1vWh0j+i2qafw
kfURd9BGBCh1hYroou/JZ90HqhaxCnS5twnU9X/k+9u1fWzeg8dK3O7+95D6M1Ym
YVF5UaHE/v9PCeWwIBAb7u7wgy7uDNVdbuwQoviTzh0wIcOsBIXY+m5GVh+4GCv9
MJVpvRVr0c6D9frsG/dsc1QpNr3NHxk/RdLWJc7oFT4Ns0PfPjDSZPAVC3HHXtQp
zcEUuBSWmzw5d46KslwmLTGoN3VaVc23xzlfUDJCGbdr2aUmou/rdXKObWqUEouC
RjSLxACXdIRm4ZqJu6bghzdk7UYHQJsA/iZ1fVqV3m8Lsbswlhf113gRTscGes0d
CHi4zRlGQffpk4rnv3kYV4W/kng8oG07tslNFB+SnA42vs8u8VnO5fGCY1w0fSC5
zGai91eVIga04+kT4K28oC8K7A64eEsOj//rZc7aFzIWPcaMawCRCJ6z6Suho/VI
fV7Y23vF6ov9n18YhYg8nM0Cnz48wFCalsspq3uhF1bE2t3BN4Vf9/w0wsUnn/hn
JboU2W9wpdSKWQPonh6Xmjg4FJn/etI0SBljxI+fzxj4nkmmgoZ21xKhYrMghixQ
LmC9robt9RiDjwSOnNf0TWtHvwDJwV3x22AX7gPu4rP4PPhy/Q4UC9JwL8SCWi3/
J18=
-----END CERTIFICATE-----
