Certificate:
    Data:
        Version: 3 (0x2)
        Serial Number: 14850318398483021962 (0xce16ede72f07408a)
    Signature Algorithm: sha256WithRSAEncryption
        Issuer: C=FI, O=ben-ota-2.lanforge.local, CN=Hotspot 2.0 Intermediate CA - 99
        Validity
            Not Before: Mar 26 20:04:32 2015 GMT
            Not After : Mar 25 20:04:32 2017 GMT
        Subject: C=FI, O=ben-ota-2.lanforge.local, OU=Hotspot 2.0 Online Sign Up Server, CN=osu-server.ben-ota-2.lanforge.local
        Subject Public Key Info:
            Public Key Algorithm: rsaEncryption
                Public-Key: (2048 bit)
                Modulus:
                    00:bc:36:53:d1:f6:a5:0d:44:86:15:1b:07:ac:24:
                    32:de:f4:70:4f:dc:78:fa:a5:ec:c3:5c:5b:45:0d:
                    c2:2b:46:09:27:d1:f1:bd:c9:e7:4a:3a:db:f3:86:
                    44:e8:40:ee:a9:cb:80:b8:24:b0:fe:56:50:54:59:
                    65:c5:3e:38:35:9f:3a:5c:1c:ab:3d:ed:88:59:52:
                    8e:b1:4c:60:39:b3:cb:58:37:12:40:17:86:aa:ba:
                    4f:28:39:5a:8a:89:1f:ce:b8:b3:01:3f:b1:6e:34:
                    dc:32:61:01:ab:45:d3:10:19:56:45:c4:74:b7:d5:
                    3d:13:e5:7e:17:2e:6f:17:b9:e6:8e:5d:3c:42:55:
                    80:54:31:5f:18:e4:98:9c:b9:b9:8e:1a:7c:12:b3:
                    0a:d5:10:dd:46:bb:43:79:6b:39:4a:81:97:6d:ba:
                    b5:3a:f1:4f:ab:d5:9e:8e:2b:62:b1:65:f7:ea:e4:
                    52:2e:b7:6b:5d:41:4f:c4:3b:ca:78:e2:52:68:f6:
                    bf:f4:b1:71:df:94:e6:08:fa:cd:03:bd:d9:07:6d:
                    19:ce:1e:1e:5d:5f:f7:e2:2d:d9:51:1b:12:7f:bf:
                    30:19:4a:e6:84:3f:4d:bd:79:9c:13:8d:d4:bb:2b:
                    74:09:26:5d:56:04:74:13:69:88:04:28:cd:fe:5a:
                    55:39
                Exponent: 65537 (0x10001)
        X509v3 extensions:
            X509v3 Basic Constraints: critical
                CA:FALSE
            X509v3 Subject Key Identifier:
                67:42:44:9A:A0:57:59:9B:D2:58:6E:96:F9:24:3A:C8:E5:E5:98:2A
            X509v3 Authority Key Identifier:
                keyid:DB:8D:71:CC:CC:14:6C:52:39:B7:E7:9A:39:00:A0:7D:10:5D:DB:D5

            Authority Information Access:
                OCSP - URI:http://ocsp.ben-ota-2.lanforge.local:8888/

            X509v3 Subject Alternative Name: critical
                DNS:osu-server.ben-ota-2.lanforge.local, othername:<unsupported>, othername:<unsupported>
            X509v3 Extended Key Usage: critical
                TLS Web Server Authentication
            X509v3 Key Usage: critical
                Key Encipherment
            1.3.6.1.5.5.7.1.12:
                0.....0.....0..0..0...image/png010/0...`.H.e..... j.e
.....Y..p-E...(#`9*B
....o>.0?.=http://osu-server.ben-ota-2.lanforge.local:443/logo-64x64.png0....}......P..zxx
    Signature Algorithm: sha256WithRSAEncryption
         82:4f:31:a4:6d:2f:bd:60:f5:e7:7b:c5:f7:9c:94:50:30:4f:
         d4:41:7d:78:c5:7c:a1:34:aa:2f:1a:73:29:91:5f:ea:07:95:
         03:18:0f:79:d9:ea:c4:7b:3f:09:4f:56:f3:59:ac:d5:d7:c2:
         d3:71:ea:f3:0f:08:e0:86:4a:5f:8e:d7:ab:64:ff:e0:ef:a4:
         1b:f9:d6:53:36:4f:92:8a:37:e9:16:9a:f1:a5:4f:e7:bc:db:
         17:d8:e6:2b:72:3c:8b:8d:f7:1a:ed:25:06:90:74:0b:f9:36:
         9c:68:9f:66:98:a9:ec:e8:2b:a8:4c:6a:2c:35:32:eb:47:73:
         71:59:e7:d2:8d:9f:3d:d6:66:3b:7f:25:17:0b:c4:89:0f:2a:
         f6:0a:3b:de:2f:6b:23:b9:da:63:67:ff:da:1b:8f:74:04:7f:
         6e:23:30:16:27:40:d9:12:a0:3f:2d:20:bc:e9:94:42:ed:ed:
         1b:2d:e3:c5:2b:d5:21:ed:bc:2d:0c:b3:90:82:48:5a:70:84:
         21:f3:2b:66:b3:27:b5:36:6e:f7:7c:f4:41:b3:4b:a1:05:a7:
         08:2b:97:64:bd:e8:7a:4a:a5:5a:96:27:68:5e:6b:77:6a:9d:
         2b:75:49:3b:e9:88:04:78:5f:2b:53:eb:30:e4:d9:3a:f5:66:
         53:53:3b:60
-----BEGIN CERTIFICATE-----
MIIFbjCCBFagAwIBAgIJAM4W7ecvB0CKMA0GCSqGSIb3DQEBCwUAMFsxCzAJBgNV
BAYTAkZJMSEwHwYDVQQKDBhiZW4tb3RhLTIubGFuZm9yZ2UubG9jYWwxKTAnBgNV
BAMMIEhvdHNwb3QgMi4wIEludGVybWVkaWF0ZSBDQSAtIDk5MB4XDTE1MDMyNjIw
MDQzMloXDTE3MDMyNTIwMDQzMlowgYoxCzAJBgNVBAYTAkZJMSEwHwYDVQQKDBhi
ZW4tb3RhLTIubGFuZm9yZ2UubG9jYWwxKjAoBgNVBAsMIUhvdHNwb3QgMi4wIE9u
bGluZSBTaWduIFVwIFNlcnZlcjEsMCoGA1UEAwwjb3N1LXNlcnZlci5iZW4tb3Rh
LTIubGFuZm9yZ2UubG9jYWwwggEiMA0GCSqGSIb3DQEBAQUAA4IBDwAwggEKAoIB
AQC8NlPR9qUNRIYVGwesJDLe9HBP3Hj6pezDXFtFDcIrRgkn0fG9yedKOtvzhkTo
QO6py4C4JLD+VlBUWWXFPjg1nzpcHKs97YhZUo6xTGA5s8tYNxJAF4aquk8oOVqK
iR/OuLMBP7FuNNwyYQGrRdMQGVZFxHS31T0T5X4XLm8XueaOXTxCVYBUMV8Y5Jic
ubmOGnwSswrVEN1Gu0N5azlKgZdturU68U+r1Z6OK2KxZffq5FIut2tdQU/EO8p4
4lJo9r/0sXHflOYI+s0DvdkHbRnOHh5dX/fiLdlRGxJ/vzAZSuaEP029eZwTjdS7
K3QJJl1WBHQTaYgEKM3+WlU5AgMBAAGjggIDMIIB/zAMBgNVHRMBAf8EAjAAMB0G
A1UdDgQWBBRnQkSaoFdZm9JYbpb5JDrI5eWYKjAfBgNVHSMEGDAWgBTbjXHMzBRs
Ujm355o5AKB9EF3b1TBGBggrBgEFBQcBAQQ6MDgwNgYIKwYBBQUHMAGGKmh0dHA6
Ly9vY3NwLmJlbi1vdGEtMi5sYW5mb3JnZS5sb2NhbDo4ODg4LzCBiQYDVR0RAQH/
BH8wfYIjb3N1LXNlcnZlci5iZW4tb3RhLTIubGFuZm9yZ2UubG9jYWygKgYLKwYB
BAGCvmgBAQGgGwwZZW5nTEFOZm9yZ2UgSFMyMCBPcGVyYXRvcqAqBgsrBgEEAYK+
aAEBAaAbDBlmaW5MQU5mb3JnZSBIUzIwIE9wZXJhdG9yMBYGA1UdJQEB/wQMMAoG
CCsGAQUFBwMBMA4GA1UdDwEB/wQEAwIFIDCBsgYIKwYBBQUHAQwEgaUwgaKggZ8w
gZyggZkwgZYwgZMwfxYJaW1hZ2UvcG5nMDEwLzALBglghkgBZQMEAgEEIGoQZQrT
oLrE0VnlvnAtRfYMtSgjYDkqQgqGF47lbz6jMD8WPWh0dHA6Ly9vc3Utc2VydmVy
LmJlbi1vdGEtMi5sYW5mb3JnZS5sb2NhbDo0NDMvbG9nby02NHg2NC5wbmcwEAIC
HX0CAgCAAgFQhAN6eHgwDQYJKoZIhvcNAQELBQADggEBAIJPMaRtL71g9ed7xfec
lFAwT9RBfXjFfKE0qi8acymRX+oHlQMYD3nZ6sR7PwlPVvNZrNXXwtNx6vMPCOCG
Sl+O16tk/+DvpBv51lM2T5KKN+kWmvGlT+e82xfY5ityPIuN9xrtJQaQdAv5Npxo
n2aYqezoK6hMaiw1MutHc3FZ59KNnz3WZjt/JRcLxIkPKvYKO94vayO52mNn/9ob
j3QEf24jMBYnQNkSoD8tILzplELt7Rst48Ur1SHtvC0Ms5CCSFpwhCHzK2azJ7U2
bvd89EGzS6EFpwgrl2S96HpKpVqWJ2hea3dqnSt1STvpiAR4XytT6zDk2Tr1ZlNT
O2A=
-----END CERTIFICATE-----
