Certificate:
    Data:
        Version: 3 (0x2)
        Serial Number: 14850318398483021959 (0xce16ede72f074087)
    Signature Algorithm: sha256WithRSAEncryption
        Issuer: C=FI, O=ben-ota-2.lanforge.local, CN=Hotspot 2.0 Intermediate CA - 99
        Validity
            Not Before: Mar 26 20:04:32 2015 GMT
            Not After : Mar 25 20:04:32 2017 GMT
        Subject: C=FI, O=ben-ota-2.lanforge.local, CN=osu-revoked.ben-ota-2.lanforge.local
        Subject Public Key Info:
            Public Key Algorithm: rsaEncryption
                Public-Key: (2048 bit)
                Modulus:
                    00:a0:1a:4c:2f:69:6b:1a:f1:21:87:48:41:0c:f4:
                    db:b2:c4:b9:68:2d:d0:b1:b7:19:d2:8a:66:6a:17:
                    f4:59:6b:3c:ba:b2:1c:59:4b:99:0d:9f:a1:d1:4b:
                    df:c7:69:b8:fe:4e:36:59:52:02:2d:6e:fc:99:07:
                    25:f2:b5:46:65:9e:10:ba:8e:c2:02:c0:bf:12:73:
                    31:fb:97:52:1e:fb:aa:1c:64:44:f1:d8:c7:84:e3:
                    2c:e7:06:5e:c1:01:58:79:01:c1:c1:ff:ac:cc:b7:
                    8b:c9:58:a5:87:c2:bd:37:31:aa:09:69:95:35:d8:
                    9b:e7:f3:6a:97:19:8d:44:87:0b:c5:c1:d6:20:14:
                    4d:94:d4:7e:97:75:44:cd:54:1f:a4:76:bf:8d:6d:
                    2c:f2:84:3f:41:08:55:50:f0:f7:84:7b:48:87:65:
                    35:fa:88:35:0c:42:6c:ae:c0:c4:71:07:a8:56:e2:
                    4e:dd:30:b2:8d:9a:89:92:27:34:ff:6d:1f:75:81:
                    fa:b7:89:bc:c9:ea:47:e7:38:8f:83:f8:3a:04:fc:
                    46:6d:ee:2d:77:a1:41:fc:fa:22:15:25:4b:0c:19:
                    ad:6f:94:ac:c1:93:45:41:6f:79:9d:86:c3:30:d5:
                    9f:de:22:f5:b2:9b:a8:98:cd:96:64:6b:d9:3d:fb:
                    e6:f7
                Exponent: 65537 (0x10001)
        X509v3 extensions:
            X509v3 Basic Constraints: critical
                CA:FALSE
            X509v3 Subject Key Identifier:
                F3:A2:EE:D0:E6:00:58:E5:14:F6:BB:6A:0F:90:6E:15:F0:F9:33:94
            X509v3 Authority Key Identifier:
                keyid:DB:8D:71:CC:CC:14:6C:52:39:B7:E7:9A:39:00:A0:7D:10:5D:DB:D5

            Authority Information Access:
                OCSP - URI:http://ocsp.ben-ota-2.lanforge.local:8888/

            X509v3 Extended Key Usage: critical
                TLS Web Server Authentication
            X509v3 Key Usage: critical
                Key Encipherment
    Signature Algorithm: sha256WithRSAEncryption
         8b:9a:7c:ca:3a:52:93:8d:f4:54:e5:80:5d:8e:6f:5d:0e:49:
         ba:f8:0a:49:cb:06:30:cb:f4:5e:8d:27:6d:f9:cd:ab:0b:95:
         b0:f3:86:8e:0b:4e:37:38:4a:5d:c2:04:d2:7f:4b:fb:eb:b7:
         62:9e:25:e6:f3:c0:39:f5:21:e4:10:df:c6:59:e7:43:3b:11:
         b4:cd:57:24:f5:a3:a3:96:4e:7a:c6:e3:d2:31:2d:3a:37:c2:
         4b:04:55:da:dd:1f:66:65:40:23:fb:c8:47:9f:d5:2b:4d:2f:
         b9:61:9c:73:6b:15:8a:e6:7c:85:04:75:7f:42:3e:e9:9f:6d:
         cc:8d:f9:23:cc:53:a5:34:5e:e0:5d:ef:4c:fd:8f:83:f0:0a:
         00:d3:70:7a:c2:95:b0:ce:5d:ed:f0:c2:e1:5e:6e:fd:16:8b:
         f0:af:26:d0:d7:8a:fb:e9:bc:10:fb:3f:03:50:06:07:e4:55:
         27:cf:25:c0:0c:4b:2d:95:8d:71:6a:ad:80:65:3d:2f:06:36:
         d2:2a:28:80:a9:d1:ee:45:b2:b6:f2:38:7c:26:82:02:18:fb:
         af:83:01:d3:54:b2:09:c2:0d:e9:6d:0e:7e:79:31:3a:5f:9e:
         56:13:26:47:f2:24:c7:7a:e2:12:dc:72:1b:11:f0:58:78:3b:
         59:ad:87:42
-----BEGIN CERTIFICATE-----
MIID/zCCAuegAwIBAgIJAM4W7ecvB0CHMA0GCSqGSIb3DQEBCwUAMFsxCzAJBgNV
BAYTAkZJMSEwHwYDVQQKDBhiZW4tb3RhLTIubGFuZm9yZ2UubG9jYWwxKTAnBgNV
BAMMIEhvdHNwb3QgMi4wIEludGVybWVkaWF0ZSBDQSAtIDk5MB4XDTE1MDMyNjIw
MDQzMloXDTE3MDMyNTIwMDQzMlowXzELMAkGA1UEBhMCRkkxITAfBgNVBAoMGGJl
bi1vdGEtMi5sYW5mb3JnZS5sb2NhbDEtMCsGA1UEAwwkb3N1LXJldm9rZWQuYmVu
LW90YS0yLmxhbmZvcmdlLmxvY2FsMIIBIjANBgkqhkiG9w0BAQEFAAOCAQ8AMIIB
CgKCAQEAoBpML2lrGvEhh0hBDPTbssS5aC3QsbcZ0opmahf0WWs8urIcWUuZDZ+h
0Uvfx2m4/k42WVICLW78mQcl8rVGZZ4Quo7CAsC/EnMx+5dSHvuqHGRE8djHhOMs
5wZewQFYeQHBwf+szLeLyVilh8K9NzGqCWmVNdib5/NqlxmNRIcLxcHWIBRNlNR+
l3VEzVQfpHa/jW0s8oQ/QQhVUPD3hHtIh2U1+og1DEJsrsDEcQeoVuJO3TCyjZqJ
kic0/20fdYH6t4m8yepH5ziPg/g6BPxGbe4td6FB/PoiFSVLDBmtb5SswZNFQW95
nYbDMNWf3iL1spuomM2WZGvZPfvm9wIDAQABo4HBMIG+MAwGA1UdEwEB/wQCMAAw
HQYDVR0OBBYEFPOi7tDmAFjlFPa7ag+QbhXw+TOUMB8GA1UdIwQYMBaAFNuNcczM
FGxSObfnmjkAoH0QXdvVMEYGCCsGAQUFBwEBBDowODA2BggrBgEFBQcwAYYqaHR0
cDovL29jc3AuYmVuLW90YS0yLmxhbmZvcmdlLmxvY2FsOjg4ODgvMBYGA1UdJQEB
/wQMMAoGCCsGAQUFBwMBMA4GA1UdDwEB/wQEAwIFIDANBgkqhkiG9w0BAQsFAAOC
AQEAi5p8yjpSk430VOWAXY5vXQ5JuvgKScsGMMv0Xo0nbfnNqwuVsPOGjgtONzhK
XcIE0n9L++u3Yp4l5vPAOfUh5BDfxlnnQzsRtM1XJPWjo5ZOesbj0jEtOjfCSwRV
2t0fZmVAI/vIR5/VK00vuWGcc2sViuZ8hQR1f0I+6Z9tzI35I8xTpTRe4F3vTP2P
g/AKANNwesKVsM5d7fDC4V5u/RaL8K8m0NeK++m8EPs/A1AGB+RVJ88lwAxLLZWN
cWqtgGU9LwY20ioogKnR7kWytvI4fCaCAhj7r4MB01SyCcIN6W0OfnkxOl+eVhMm
R/Ikx3riEtxyGxHwWHg7Wa2HQg==
-----END CERTIFICATE-----
