Certificate:
    Data:
        Version: 3 (0x2)
        Serial Number: 14850318398483021961 (0xce16ede72f074089)
    Signature Algorithm: sha256WithRSAEncryption
        Issuer: C=FI, O=ben-ota-2.lanforge.local, CN=Hotspot 2.0 Intermediate CA - 99
        Validity
            Not Before: Mar 26 20:04:32 2015 GMT
            Not After : Mar 25 20:04:32 2017 GMT
        Subject: C=FI, O=ben-ota-2.lanforge.local, CN=User
        Subject Public Key Info:
            Public Key Algorithm: rsaEncryption
                Public-Key: (2048 bit)
                Modulus:
                    00:d5:4d:4d:38:c8:8c:94:da:5c:03:16:3b:e9:a6:
                    4b:83:13:74:20:29:92:80:81:80:cf:9a:a0:24:94:
                    a3:c1:13:f1:c3:02:76:e7:5d:1c:2e:18:78:d5:9b:
                    64:7f:76:db:35:c4:2f:90:1d:9f:e5:5e:e3:34:14:
                    db:c5:c1:4c:ea:8f:24:4d:62:c9:1f:4e:0d:7d:cf:
                    6d:96:e0:ae:b0:40:01:73:60:dd:f4:71:c8:d4:45:
                    da:1a:8f:d9:59:26:e3:ab:54:af:1c:bf:28:fb:22:
                    0d:ab:f3:20:d4:88:b0:d7:8d:fc:b3:3f:9e:59:ac:
                    bb:6e:8d:b2:f9:9f:50:4b:92:65:ac:c1:d7:41:65:
                    0e:2e:eb:63:03:ec:6a:49:8a:07:16:6b:67:f0:24:
                    70:f1:79:1f:ac:ba:67:74:c9:45:8a:0c:70:56:d6:
                    2b:3a:46:be:9e:67:d2:c5:e7:a8:c7:b4:9f:a0:6e:
                    6b:76:5f:07:6b:b5:e8:86:0b:bc:87:7a:4f:be:5b:
                    6e:e1:5e:17:c0:e5:47:00:20:d1:b7:46:64:1b:61:
                    29:a0:28:3c:98:37:87:41:b9:ea:41:20:60:75:00:
                    64:10:36:6b:ea:60:d2:90:75:68:ec:5d:86:e2:4d:
                    38:7d:83:6b:1d:22:dc:01:11:b3:e3:94:f8:92:9c:
                    08:cd
                Exponent: 65537 (0x10001)
        X509v3 extensions:
            X509v3 Basic Constraints:
                CA:FALSE
            X509v3 Subject Key Identifier:
                17:06:FF:20:B3:C1:D5:D3:7F:76:65:EA:34:56:94:40:36:03:DD:9A
            X509v3 Authority Key Identifier:
                keyid:DB:8D:71:CC:CC:14:6C:52:39:B7:E7:9A:39:00:A0:7D:10:5D:DB:D5

            Authority Information Access:
                OCSP - URI:http://ocsp.ben-ota-2.lanforge.local:8888/

            X509v3 Extended Key Usage:
                TLS Web Client Authentication
    Signature Algorithm: sha256WithRSAEncryption
         bb:41:d3:cc:d7:41:9a:13:96:3b:6c:fe:8d:d7:b6:cb:73:7d:
         4c:49:ed:0c:44:43:49:97:f2:71:cb:db:da:98:92:cf:a3:5a:
         dd:f3:5a:42:23:8d:2e:ae:1a:f6:05:b0:58:c2:c4:fc:7c:32:
         62:78:54:90:8b:d0:48:b4:74:18:e1:6c:5a:86:93:2c:bc:af:
         e5:70:c6:f3:10:ca:66:87:41:7c:3d:a7:27:0f:f4:c1:e4:7b:
         97:d6:25:6f:f5:e5:91:94:c7:46:05:ac:b4:f4:63:8b:06:bb:
         a0:aa:09:bf:96:31:f4:f5:72:86:d3:33:f3:e6:83:20:3c:40:
         e4:84:07:17:b1:c0:1c:16:26:e6:37:13:ac:ae:18:91:a4:ab:
         80:6a:7d:96:3b:01:a5:ba:a4:12:8f:4a:72:76:dc:8e:cc:29:
         b7:c8:28:59:a5:82:ca:0b:6a:44:f8:bb:2b:74:8d:3f:be:a7:
         f2:61:df:68:fe:f4:83:7e:15:4a:b5:56:b7:52:e4:6a:02:1e:
         cc:00:fe:2a:8f:98:80:43:61:1e:c1:fb:c2:85:f8:d0:46:3e:
         86:64:7b:9a:8e:8a:ef:5e:2d:81:b8:c2:bd:ce:da:c8:7e:32:
         ef:ec:f0:69:07:f3:77:b6:c1:d8:f9:c7:40:93:98:c6:d0:ba:
         33:99:5a:99
-----BEGIN CERTIFICATE-----
MIIDyTCCArGgAwIBAgIJAM4W7ecvB0CJMA0GCSqGSIb3DQEBCwUAMFsxCzAJBgNV
BAYTAkZJMSEwHwYDVQQKDBhiZW4tb3RhLTIubGFuZm9yZ2UubG9jYWwxKTAnBgNV
BAMMIEhvdHNwb3QgMi4wIEludGVybWVkaWF0ZSBDQSAtIDk5MB4XDTE1MDMyNjIw
MDQzMloXDTE3MDMyNTIwMDQzMlowPzELMAkGA1UEBhMCRkkxITAfBgNVBAoMGGJl
bi1vdGEtMi5sYW5mb3JnZS5sb2NhbDENMAsGA1UEAwwEVXNlcjCCASIwDQYJKoZI
hvcNAQEBBQADggEPADCCAQoCggEBANVNTTjIjJTaXAMWO+mmS4MTdCApkoCBgM+a
oCSUo8ET8cMCduddHC4YeNWbZH922zXEL5Adn+Ve4zQU28XBTOqPJE1iyR9ODX3P
bZbgrrBAAXNg3fRxyNRF2hqP2Vkm46tUrxy/KPsiDavzINSIsNeN/LM/nlmsu26N
svmfUEuSZazB10FlDi7rYwPsakmKBxZrZ/AkcPF5H6y6Z3TJRYoMcFbWKzpGvp5n
0sXnqMe0n6Bua3ZfB2u16IYLvId6T75bbuFeF8DlRwAg0bdGZBthKaAoPJg3h0G5
6kEgYHUAZBA2a+pg0pB1aOxdhuJNOH2Dax0i3AERs+OU+JKcCM0CAwEAAaOBqzCB
qDAJBgNVHRMEAjAAMB0GA1UdDgQWBBQXBv8gs8HV0392Zeo0VpRANgPdmjAfBgNV
HSMEGDAWgBTbjXHMzBRsUjm355o5AKB9EF3b1TBGBggrBgEFBQcBAQQ6MDgwNgYI
KwYBBQUHMAGGKmh0dHA6Ly9vY3NwLmJlbi1vdGEtMi5sYW5mb3JnZS5sb2NhbDo4
ODg4LzATBgNVHSUEDDAKBggrBgEFBQcDAjANBgkqhkiG9w0BAQsFAAOCAQEAu0HT
zNdBmhOWO2z+jde2y3N9TEntDERDSZfyccvb2piSz6Na3fNaQiONLq4a9gWwWMLE
/HwyYnhUkIvQSLR0GOFsWoaTLLyv5XDG8xDKZodBfD2nJw/0weR7l9Ylb/XlkZTH
RgWstPRjiwa7oKoJv5Yx9PVyhtMz8+aDIDxA5IQHF7HAHBYm5jcTrK4YkaSrgGp9
ljsBpbqkEo9Kcnbcjswpt8goWaWCygtqRPi7K3SNP76n8mHfaP70g34VSrVWt1Lk
agIezAD+Ko+YgENhHsH7woX40EY+hmR7mo6K714tgbjCvc7ayH4y7+zwaQfzd7bB
2PnHQJOYxtC6M5lamQ==
-----END CERTIFICATE-----
